

Microchip MPLAB XC8 Assembler V2.45 build 20230818022343 
                                                                                               Tue Feb 06 15:21:21 2024

Microchip MPLAB XC8 C Compiler v2.45 (Free license) build 20230818022343 Og1 
     1                           	processor	16F1719
     2                           	pagewidth 120
     3                           	opt	flic
     4                           	psect	cinit,global,class=CODE,merge=1,delta=2
     5                           	psect	bssCOMMON,global,class=COMMON,space=1,delta=1,noexec
     6                           	psect	cstackCOMMON,global,class=COMMON,space=1,delta=1,noexec
     7                           	psect	cstackBANK0,global,class=BANK0,space=1,delta=1,noexec
     8                           	psect	maintext,global,class=CODE,merge=1,split=1,delta=2
     9                           	psect	text1,local,class=CODE,merge=1,delta=2
    10                           	psect	intentry,global,class=CODE,delta=2
    11                           	psect	text3,local,class=CODE,merge=1,delta=2
    12                           	psect	text4,local,class=CODE,merge=1,delta=2,group=1
    13                           	psect	config,global,abs,ovrld,class=CONFIG,space=4,delta=2,noexec
    14                           	dabs	1,0x7E,2
    15     0000                     
    16                           ; Generated 06/07/2023 GMT
    17                           ; 
    18                           ; Copyright © 2023, Microchip Technology Inc. and its subsidiaries ("Microchip")
    19                           ; All rights reserved.
    20                           ; 
    21                           ; This software is developed by Microchip Technology Inc. and its subsidiaries ("Microch
      +                          ip").
    22                           ; 
    23                           ; Redistribution and use in source and binary forms, with or without modification, are
    24                           ; permitted provided that the following conditions are met:
    25                           ; 
    26                           ;     1. Redistributions of source code must retain the above copyright notice, this lis
      +                          t of
    27                           ;        conditions and the following disclaimer.
    28                           ; 
    29                           ;     2. Redistributions in binary form must reproduce the above copyright notice, this 
      +                          list
    30                           ;        of conditions and the following disclaimer in the documentation and/or other
    31                           ;        materials provided with the distribution. Publication is not required when
    32                           ;        this file is used in an embedded application.
    33                           ; 
    34                           ;     3. Microchip's name may not be used to endorse or promote products derived from th
      +                          is
    35                           ;        software without specific prior written permission.
    36                           ; 
    37                           ; THIS SOFTWARE IS PROVIDED BY MICROCHIP "AS IS" AND ANY EXPRESS OR IMPLIED WARRANTIES,
    38                           ; INCLUDING, BUT NOT LIMITED TO, THE IMPLIED WARRANTIES OF MERCHANTABILITY AND FITNESS F
      +                          OR
    39                           ; PURPOSE ARE DISCLAIMED.  IN NO EVENT SHALL MICROCHIP BE LIABLE FOR ANY DIRECT, INDIREC
      +                          T,
    40                           ; INCIDENTAL, SPECIAL, EXEMPLARY, OR CONSEQUENTIAL DAMAGES (INCLUDING BUT NOT LIMITED TO
    41                           ; PROCUREMENT OF SUBSTITUTE GOODS OR SERVICES; LOSS OF USE, DATA OR PROFITS; OR BUSINESS
    42                           ; INTERRUPTION) HOWSOEVER CAUSED AND ON ANY THEORY OF LIABILITY, WHETHER IN CONTRACT, ST
      +                          RICT
    43                           ; LIABILITY, OR TORT (INCLUDING NEGLIGENCE OR OTHERWISE) ARISING IN ANY WAY OUT OF THE U
      +                          SE OF
    44                           ; THIS SOFTWARE, EVEN IF ADVISED OF THE POSSIBILITY OF SUCH DAMAGE.
    45                           ; 
    46                           ; 
    47                           ; Code-generator required, PIC16F1719 Definitions
    48                           ; 
    49                           ; SFR Addresses
    50     0000                     	;# 
    51     0001                     	;# 
    52     0002                     	;# 
    53     0003                     	;# 
    54     0004                     	;# 
    55     0005                     	;# 
    56     0006                     	;# 
    57     0007                     	;# 
    58     0008                     	;# 
    59     0009                     	;# 
    60     000A                     	;# 
    61     000B                     	;# 
    62     000C                     	;# 
    63     000D                     	;# 
    64     000E                     	;# 
    65     000F                     	;# 
    66     0010                     	;# 
    67     0011                     	;# 
    68     0012                     	;# 
    69     0013                     	;# 
    70     0015                     	;# 
    71     0016                     	;# 
    72     0016                     	;# 
    73     0017                     	;# 
    74     0018                     	;# 
    75     0019                     	;# 
    76     001A                     	;# 
    77     001B                     	;# 
    78     001C                     	;# 
    79     008C                     	;# 
    80     008D                     	;# 
    81     008E                     	;# 
    82     008F                     	;# 
    83     0090                     	;# 
    84     0091                     	;# 
    85     0092                     	;# 
    86     0093                     	;# 
    87     0095                     	;# 
    88     0096                     	;# 
    89     0097                     	;# 
    90     0098                     	;# 
    91     0099                     	;# 
    92     009A                     	;# 
    93     009B                     	;# 
    94     009B                     	;# 
    95     009C                     	;# 
    96     009D                     	;# 
    97     009E                     	;# 
    98     009F                     	;# 
    99     010C                     	;# 
   100     010D                     	;# 
   101     010E                     	;# 
   102     010F                     	;# 
   103     0110                     	;# 
   104     0111                     	;# 
   105     0112                     	;# 
   106     0113                     	;# 
   107     0114                     	;# 
   108     0115                     	;# 
   109     0116                     	;# 
   110     0117                     	;# 
   111     0118                     	;# 
   112     0119                     	;# 
   113     011A                     	;# 
   114     011B                     	;# 
   115     011B                     	;# 
   116     011C                     	;# 
   117     018C                     	;# 
   118     018D                     	;# 
   119     018E                     	;# 
   120     018F                     	;# 
   121     0190                     	;# 
   122     0191                     	;# 
   123     0191                     	;# 
   124     0192                     	;# 
   125     0193                     	;# 
   126     0193                     	;# 
   127     0194                     	;# 
   128     0195                     	;# 
   129     0196                     	;# 
   130     0197                     	;# 
   131     0199                     	;# 
   132     0199                     	;# 
   133     0199                     	;# 
   134     019A                     	;# 
   135     019A                     	;# 
   136     019A                     	;# 
   137     019B                     	;# 
   138     019B                     	;# 
   139     019B                     	;# 
   140     019B                     	;# 
   141     019B                     	;# 
   142     019C                     	;# 
   143     019C                     	;# 
   144     019C                     	;# 
   145     019D                     	;# 
   146     019D                     	;# 
   147     019D                     	;# 
   148     019E                     	;# 
   149     019E                     	;# 
   150     019E                     	;# 
   151     019F                     	;# 
   152     019F                     	;# 
   153     019F                     	;# 
   154     019F                     	;# 
   155     019F                     	;# 
   156     020C                     	;# 
   157     020D                     	;# 
   158     020E                     	;# 
   159     020F                     	;# 
   160     0210                     	;# 
   161     0211                     	;# 
   162     0211                     	;# 
   163     0212                     	;# 
   164     0212                     	;# 
   165     0213                     	;# 
   166     0213                     	;# 
   167     0214                     	;# 
   168     0214                     	;# 
   169     0215                     	;# 
   170     0215                     	;# 
   171     0215                     	;# 
   172     0215                     	;# 
   173     0216                     	;# 
   174     0216                     	;# 
   175     0217                     	;# 
   176     0217                     	;# 
   177     028C                     	;# 
   178     028D                     	;# 
   179     028E                     	;# 
   180     028F                     	;# 
   181     0290                     	;# 
   182     0291                     	;# 
   183     0291                     	;# 
   184     0292                     	;# 
   185     0293                     	;# 
   186     0293                     	;# 
   187     0298                     	;# 
   188     0298                     	;# 
   189     0299                     	;# 
   190     029A                     	;# 
   191     029A                     	;# 
   192     029E                     	;# 
   193     030C                     	;# 
   194     030D                     	;# 
   195     030E                     	;# 
   196     030F                     	;# 
   197     0310                     	;# 
   198     038C                     	;# 
   199     038D                     	;# 
   200     038E                     	;# 
   201     038F                     	;# 
   202     0390                     	;# 
   203     0391                     	;# 
   204     0392                     	;# 
   205     0393                     	;# 
   206     0394                     	;# 
   207     0395                     	;# 
   208     0396                     	;# 
   209     0397                     	;# 
   210     0398                     	;# 
   211     0399                     	;# 
   212     039D                     	;# 
   213     039E                     	;# 
   214     039F                     	;# 
   215     0415                     	;# 
   216     0416                     	;# 
   217     0417                     	;# 
   218     041C                     	;# 
   219     041D                     	;# 
   220     041E                     	;# 
   221     0498                     	;# 
   222     0498                     	;# 
   223     0499                     	;# 
   224     049A                     	;# 
   225     049B                     	;# 
   226     049B                     	;# 
   227     049C                     	;# 
   228     049D                     	;# 
   229     049E                     	;# 
   230     049F                     	;# 
   231     0511                     	;# 
   232     0515                     	;# 
   233     0617                     	;# 
   234     0618                     	;# 
   235     0619                     	;# 
   236     0619                     	;# 
   237     061A                     	;# 
   238     061B                     	;# 
   239     061C                     	;# 
   240     061C                     	;# 
   241     0691                     	;# 
   242     0692                     	;# 
   243     0693                     	;# 
   244     0694                     	;# 
   245     0695                     	;# 
   246     0696                     	;# 
   247     0697                     	;# 
   248     0698                     	;# 
   249     0699                     	;# 
   250     069A                     	;# 
   251     069B                     	;# 
   252     069C                     	;# 
   253     069D                     	;# 
   254     069E                     	;# 
   255     069F                     	;# 
   256     0E0F                     	;# 
   257     0E10                     	;# 
   258     0E11                     	;# 
   259     0E12                     	;# 
   260     0E13                     	;# 
   261     0E14                     	;# 
   262     0E15                     	;# 
   263     0E17                     	;# 
   264     0E20                     	;# 
   265     0E21                     	;# 
   266     0E22                     	;# 
   267     0E24                     	;# 
   268     0E25                     	;# 
   269     0E28                     	;# 
   270     0E29                     	;# 
   271     0E2A                     	;# 
   272     0E2B                     	;# 
   273     0E90                     	;# 
   274     0E91                     	;# 
   275     0E92                     	;# 
   276     0E93                     	;# 
   277     0E94                     	;# 
   278     0E95                     	;# 
   279     0E96                     	;# 
   280     0E97                     	;# 
   281     0E98                     	;# 
   282     0E99                     	;# 
   283     0E9A                     	;# 
   284     0E9B                     	;# 
   285     0E9C                     	;# 
   286     0E9D                     	;# 
   287     0E9E                     	;# 
   288     0E9F                     	;# 
   289     0EA0                     	;# 
   290     0EA1                     	;# 
   291     0EA2                     	;# 
   292     0EA3                     	;# 
   293     0EA4                     	;# 
   294     0EA5                     	;# 
   295     0EA6                     	;# 
   296     0EA7                     	;# 
   297     0EA8                     	;# 
   298     0EA9                     	;# 
   299     0EAA                     	;# 
   300     0EAB                     	;# 
   301     0EAC                     	;# 
   302     0EAD                     	;# 
   303     0EAE                     	;# 
   304     0EAF                     	;# 
   305     0EB0                     	;# 
   306     0EB1                     	;# 
   307     0EB2                     	;# 
   308     0F0F                     	;# 
   309     0F10                     	;# 
   310     0F11                     	;# 
   311     0F12                     	;# 
   312     0F13                     	;# 
   313     0F14                     	;# 
   314     0F15                     	;# 
   315     0F16                     	;# 
   316     0F17                     	;# 
   317     0F18                     	;# 
   318     0F19                     	;# 
   319     0F1A                     	;# 
   320     0F1B                     	;# 
   321     0F1C                     	;# 
   322     0F1D                     	;# 
   323     0F1E                     	;# 
   324     0F1F                     	;# 
   325     0F20                     	;# 
   326     0F21                     	;# 
   327     0F22                     	;# 
   328     0F23                     	;# 
   329     0F24                     	;# 
   330     0F25                     	;# 
   331     0F26                     	;# 
   332     0F27                     	;# 
   333     0F28                     	;# 
   334     0F29                     	;# 
   335     0F2A                     	;# 
   336     0F2B                     	;# 
   337     0F2C                     	;# 
   338     0F2D                     	;# 
   339     0F2E                     	;# 
   340     0F2F                     	;# 
   341     0F30                     	;# 
   342     0F31                     	;# 
   343     0F32                     	;# 
   344     0F33                     	;# 
   345     0F34                     	;# 
   346     0F35                     	;# 
   347     0F36                     	;# 
   348     0F37                     	;# 
   349     0FE4                     	;# 
   350     0FE5                     	;# 
   351     0FE6                     	;# 
   352     0FE7                     	;# 
   353     0FE8                     	;# 
   354     0FE9                     	;# 
   355     0FEA                     	;# 
   356     0FEB                     	;# 
   357     0FED                     	;# 
   358     0FEE                     	;# 
   359     0FEF                     	;# 
   360     0015                     _TMR0	set	21
   361     000D                     _PORTBbits	set	13
   362     001B                     _PR2	set	27
   363     000B                     _INTCONbits	set	11
   364     001C                     _T2CONbits	set	28
   365     0011                     _PIR1bits	set	17
   366     000F                     _PORTDbits	set	15
   367     0095                     _OPTION_REGbits	set	149
   368     0091                     _PIE1bits	set	145
   369     008D                     _TRISBbits	set	141
   370     008F                     _TRISDbits	set	143
   371                           
   372                           	psect	cinit
   373     0029                     start_initialization:	
   374                           ; #config settings
   375                           
   376     0029                     __initialization:
   377                           
   378                           ; Clear objects allocated to COMMON
   379     0029  01F7               	clrf	__pbssCOMMON& (0+127)
   380     002A  01F8               	clrf	(__pbssCOMMON+1)& (0+127)
   381     002B                     end_of_initialization:	
   382                           ;End of C runtime variable initialization code
   383                           
   384     002B                     __end_of__initialization:
   385     002B  107E               	bcf	int$flags,0	;clear compiler interrupt flag (level 1)
   386     002C  0020               	movlb	0
   387     002D  3180  282F         	ljmp	_main	;jump to C main() function
   388                           
   389                           	psect	bssCOMMON
   390     0077                     __pbssCOMMON:
   391     0077                     _tick_count:
   392     0077                     	ds	2
   393                           
   394                           	psect	cstackCOMMON
   395     0070                     __pcstackCOMMON:
   396     0070                     ?_init_leds:
   397     0070                     ?_modif_led:	
   398                           ; 1 bytes @ 0x0
   399                           
   400     0070                     ??_modif_led:	
   401                           ; 1 bytes @ 0x0
   402                           
   403     0070                     ?_isr:	
   404                           ; 1 bytes @ 0x0
   405                           
   406     0070                     ?_main:	
   407                           ; 1 bytes @ 0x0
   408                           
   409     0070                     ?___awmod:	
   410                           ; 1 bytes @ 0x0
   411                           
   412     0070                     ___awmod@divisor:	
   413                           ; 2 bytes @ 0x0
   414                           
   415                           
   416                           ; 2 bytes @ 0x0
   417     0070                     	ds	2
   418     0072                     ___awmod@dividend:
   419                           
   420                           ; 2 bytes @ 0x2
   421     0072                     	ds	2
   422     0074                     ??___awmod:
   423                           
   424                           ; 1 bytes @ 0x4
   425     0074                     	ds	1
   426     0075                     ___awmod@counter:
   427                           
   428                           ; 1 bytes @ 0x5
   429     0075                     	ds	1
   430     0076                     ___awmod@sign:
   431                           
   432                           ; 1 bytes @ 0x6
   433     0076                     	ds	1
   434     0077                     ??_isr:
   435                           
   436                           	psect	cstackBANK0
   437     0020                     __pcstackBANK0:	
   438                           ; 1 bytes @ 0x7
   439                           
   440     0020                     ??_init_leds:
   441     0020                     ??_main:	
   442                           ; 1 bytes @ 0x0
   443                           
   444                           
   445                           ; 1 bytes @ 0x0
   446     0020                     	ds	1
   447     0021                     main@i:
   448                           
   449                           ; 2 bytes @ 0x1
   450     0021                     	ds	2
   451     0023                     main@i_323:
   452                           
   453                           ; 2 bytes @ 0x3
   454     0023                     	ds	2
   455     0025                     main@i_324:
   456                           
   457                           ; 2 bytes @ 0x5
   458     0025                     	ds	2
   459     0027                     main@i_325:
   460                           
   461                           ; 2 bytes @ 0x7
   462     0027                     	ds	2
   463                           
   464                           	psect	maintext
   465     002F                     __pmaintext:	
   466 ;;
   467 ;;Main: autosize = 0, tempsize = 1, incstack = 0, save=0
   468 ;;
   469 ;; *************** function _main *****************
   470 ;; Defined at:
   471 ;;		line 91 in file "main.c"
   472 ;; Parameters:    Size  Location     Type
   473 ;;		None
   474 ;; Auto vars:     Size  Location     Type
   475 ;;  i               2    7[BANK0 ] int 
   476 ;;  i               2    5[BANK0 ] int 
   477 ;;  i               2    3[BANK0 ] int 
   478 ;;  i               2    1[BANK0 ] int 
   479 ;; Return value:  Size  Location     Type
   480 ;;                  1    wreg      void 
   481 ;; Registers used:
   482 ;;		wreg, status,2, status,0, pclath, cstack
   483 ;; Tracked objects:
   484 ;;		On entry : B1F/0
   485 ;;		On exit  : 0/0
   486 ;;		Unchanged: 0/0
   487 ;; Data sizes:     COMMON   BANK0   BANK1   BANK2   BANK3   BANK4   BANK5   BANK6   BANK7   BANK8   BANK9  BANK10  BANK1
      +1  BANK12  BANK13  BANK14  BANK15  BANK16  BANK17  BANK18  BANK19  BANK20  BANK21  BANK22  BANK23  BANK24  BANK25
   488 ;;      Params:         0       0       0       0       0       0       0       0       0       0       0       0       
      +0       0       0       0       0       0       0       0       0       0       0       0       0       0       0
   489 ;;      Locals:         0       8       0       0       0       0       0       0       0       0       0       0       
      +0       0       0       0       0       0       0       0       0       0       0       0       0       0       0
   490 ;;      Temps:          0       1       0       0       0       0       0       0       0       0       0       0       
      +0       0       0       0       0       0       0       0       0       0       0       0       0       0       0
   491 ;;      Totals:         0       9       0       0       0       0       0       0       0       0       0       0       
      +0       0       0       0       0       0       0       0       0       0       0       0       0       0       0
   492 ;;Total ram usage:        9 bytes
   493 ;; Hardware stack levels required when called: 3
   494 ;; This function calls:
   495 ;;		_init_leds
   496 ;; This function is called by:
   497 ;;		Startup code after reset
   498 ;; This function uses a non-reentrant model
   499 ;;
   500                           
   501     002F                     _main:	
   502                           ;psect for function _main
   503                           
   504     002F                     l1015:	
   505                           ;incstack = 0
   506                           ; Regs used in _main: [wreg+status,2+status,0+pclath+cstack]
   507                           
   508                           
   509                           ;main.c: 93:     init_leds();
   510     002F  3181  214E  3180   	fcall	_init_leds
   511     0032                     l1017:
   512                           
   513                           ;main.c: 94:     T2CONbits.TMR2ON = 1;
   514     0032  0020               	movlb	0	; select bank0
   515     0033  151C               	bsf	28,2	;volatile
   516     0034                     l1019:
   517                           
   518                           ;main.c: 95:     T2CONbits.T2OUTPS = 7;
   519     0034  081C               	movf	28,w	;volatile
   520     0035  3987               	andlw	-121
   521     0036  3838               	iorlw	56
   522     0037  009C               	movwf	28	;volatile
   523     0038                     l1021:
   524                           
   525                           ;main.c: 96:     T2CONbits.T2CKPS = 0;
   526     0038  30FC               	movlw	-4
   527     0039  059C               	andwf	28,f	;volatile
   528     003A                     l1023:
   529                           
   530                           ;main.c: 98:     INTCONbits.GIE = 1;
   531     003A  178B               	bsf	11,7	;volatile
   532     003B                     l1025:
   533                           
   534                           ;main.c: 99:     INTCONbits.PEIE = 1;
   535     003B  170B               	bsf	11,6	;volatile
   536     003C                     l1027:
   537                           
   538                           ;main.c: 100:     PIE1bits.TMR2IE = 1;
   539     003C  0021               	movlb	1	; select bank1
   540     003D  1491               	bsf	17,1	;volatile
   541     003E                     l1029:
   542                           
   543                           ;main.c: 101:     PIR1bits.TMR2IF = 1;
   544     003E  0020               	movlb	0	; select bank0
   545     003F  1491               	bsf	17,1	;volatile
   546     0040                     l1031:
   547                           
   548                           ;main.c: 103:     OPTION_REGbits.PS = 3;
   549     0040  0021               	movlb	1	; select bank1
   550     0041  0815               	movf	21,w	;volatile
   551     0042  39F8               	andlw	-8
   552     0043  3803               	iorlw	3
   553     0044  0095               	movwf	21	;volatile
   554     0045                     l1033:
   555                           
   556                           ;main.c: 104:     OPTION_REGbits.PSA = 0;
   557     0045  1195               	bcf	21,3	;volatile
   558     0046                     l1035:
   559                           
   560                           ;main.c: 105:     OPTION_REGbits.TMR0CS = 0;
   561     0046  1295               	bcf	21,5	;volatile
   562     0047                     l1037:
   563                           
   564                           ;main.c: 108:     PR2 = 249;
   565     0047  30F9               	movlw	249
   566     0048  0020               	movlb	0	; select bank0
   567     0049  009B               	movwf	27	;volatile
   568     004A                     l1039:
   569                           
   570                           ;main.c: 110:         PORTBbits.RB3 = 1;
   571     004A  0020               	movlb	0	; select bank0
   572     004B  158D               	bsf	13,3	;volatile
   573     004C                     l1041:
   574                           
   575                           ;main.c: 111:         for (int i = 0; i <= 1000; i++) {
   576     004C  01A1               	clrf	main@i
   577     004D  01A2               	clrf	main@i+1
   578     004E                     l1047:
   579                           
   580                           ;main.c: 112:             TMR0 = 130;
   581     004E  3082               	movlw	130
   582     004F  0020               	movlb	0	; select bank0
   583     0050  0095               	movwf	21	;volatile
   584     0051                     l51:	
   585                           ;main.c: 114:             }
   586                           
   587                           
   588                           ;main.c: 113:             while(INTCONbits.TMR0IF == 0){
   589     0051  1D0B               	btfss	11,2	;volatile
   590     0052  2854               	goto	u391
   591     0053  2855               	goto	u390
   592     0054                     u391:
   593     0054  2851               	goto	l51
   594     0055                     u390:
   595     0055                     l53:
   596                           
   597                           ;main.c: 115:             INTCONbits.TMR0IF = 0;
   598     0055  110B               	bcf	11,2	;volatile
   599     0056                     l1049:
   600                           
   601                           ;main.c: 116:         }
   602     0056  3001               	movlw	1
   603     0057  0020               	movlb	0	; select bank0
   604     0058  07A1               	addwf	main@i,f
   605     0059  3000               	movlw	0
   606     005A  3DA2               	addwfc	main@i+1,f
   607     005B  0822               	movf	main@i+1,w
   608     005C  3A80               	xorlw	128
   609     005D  00A0               	movwf	??_main
   610     005E  3083               	movlw	131
   611     005F  0220               	subwf	??_main,w
   612     0060  1D03               	skipz
   613     0061  2864               	goto	u405
   614     0062  30E9               	movlw	233
   615     0063  0221               	subwf	main@i,w
   616     0064                     u405:
   617     0064  1C03               	skipc
   618     0065  2867               	goto	u401
   619     0066  2868               	goto	u400
   620     0067                     u401:
   621     0067  284E               	goto	l1047
   622     0068                     u400:
   623     0068                     l50:
   624                           
   625                           ;main.c: 117:         PORTBbits.RB2 = 1;
   626     0068  0020               	movlb	0	; select bank0
   627     0069  150D               	bsf	13,2	;volatile
   628     006A                     l1051:
   629                           
   630                           ;main.c: 118:         for (int i = 0; i <= 1000; i++) {
   631     006A  01A3               	clrf	main@i_323
   632     006B  01A4               	clrf	main@i_323+1
   633     006C                     l1057:
   634                           
   635                           ;main.c: 119:             TMR0 = 130;
   636     006C  3082               	movlw	130
   637     006D  0020               	movlb	0	; select bank0
   638     006E  0095               	movwf	21	;volatile
   639     006F                     l56:	
   640                           ;main.c: 121:             }
   641                           
   642                           
   643                           ;main.c: 120:             while(INTCONbits.TMR0IF == 0){
   644     006F  1D0B               	btfss	11,2	;volatile
   645     0070  2872               	goto	u411
   646     0071  2873               	goto	u410
   647     0072                     u411:
   648     0072  286F               	goto	l56
   649     0073                     u410:
   650     0073                     l58:
   651                           
   652                           ;main.c: 122:             INTCONbits.TMR0IF = 0;
   653     0073  110B               	bcf	11,2	;volatile
   654     0074                     l1059:
   655                           
   656                           ;main.c: 123:         }
   657     0074  3001               	movlw	1
   658     0075  0020               	movlb	0	; select bank0
   659     0076  07A3               	addwf	main@i_323,f
   660     0077  3000               	movlw	0
   661     0078  3DA4               	addwfc	main@i_323+1,f
   662     0079  0824               	movf	main@i_323+1,w
   663     007A  3A80               	xorlw	128
   664     007B  00A0               	movwf	??_main
   665     007C  3083               	movlw	131
   666     007D  0220               	subwf	??_main,w
   667     007E  1D03               	skipz
   668     007F  2882               	goto	u425
   669     0080  30E9               	movlw	233
   670     0081  0223               	subwf	main@i_323,w
   671     0082                     u425:
   672     0082  1C03               	skipc
   673     0083  2885               	goto	u421
   674     0084  2886               	goto	u420
   675     0085                     u421:
   676     0085  286C               	goto	l1057
   677     0086                     u420:
   678     0086                     l55:
   679                           
   680                           ;main.c: 124:         PORTBbits.RB1 = 1;
   681     0086  0020               	movlb	0	; select bank0
   682     0087  148D               	bsf	13,1	;volatile
   683     0088                     l1061:
   684                           
   685                           ;main.c: 125:         for (int i = 0; i <= 1000; i++) {
   686     0088  01A5               	clrf	main@i_324
   687     0089  01A6               	clrf	main@i_324+1
   688     008A                     l1067:
   689                           
   690                           ;main.c: 126:             TMR0 = 130;
   691     008A  3082               	movlw	130
   692     008B  0020               	movlb	0	; select bank0
   693     008C  0095               	movwf	21	;volatile
   694     008D                     l61:	
   695                           ;main.c: 128:             }
   696                           
   697                           
   698                           ;main.c: 127:             while(INTCONbits.TMR0IF == 0){
   699     008D  1D0B               	btfss	11,2	;volatile
   700     008E  2890               	goto	u431
   701     008F  2891               	goto	u430
   702     0090                     u431:
   703     0090  288D               	goto	l61
   704     0091                     u430:
   705     0091                     l63:
   706                           
   707                           ;main.c: 129:             INTCONbits.TMR0IF = 0;
   708     0091  110B               	bcf	11,2	;volatile
   709     0092                     l1069:
   710                           
   711                           ;main.c: 130:         }
   712     0092  3001               	movlw	1
   713     0093  0020               	movlb	0	; select bank0
   714     0094  07A5               	addwf	main@i_324,f
   715     0095  3000               	movlw	0
   716     0096  3DA6               	addwfc	main@i_324+1,f
   717     0097  0826               	movf	main@i_324+1,w
   718     0098  3A80               	xorlw	128
   719     0099  00A0               	movwf	??_main
   720     009A  3083               	movlw	131
   721     009B  0220               	subwf	??_main,w
   722     009C  1D03               	skipz
   723     009D  28A0               	goto	u445
   724     009E  30E9               	movlw	233
   725     009F  0225               	subwf	main@i_324,w
   726     00A0                     u445:
   727     00A0  1C03               	skipc
   728     00A1  28A3               	goto	u441
   729     00A2  28A4               	goto	u440
   730     00A3                     u441:
   731     00A3  288A               	goto	l1067
   732     00A4                     u440:
   733     00A4                     l60:
   734                           
   735                           ;main.c: 131:         PORTBbits.RB0 = 1;
   736     00A4  0020               	movlb	0	; select bank0
   737     00A5  140D               	bsf	13,0	;volatile
   738     00A6                     l1071:
   739                           
   740                           ;main.c: 132:         for (int i = 0; i <= 1000; i++) {
   741     00A6  01A7               	clrf	main@i_325
   742     00A7  01A8               	clrf	main@i_325+1
   743     00A8                     l1077:
   744                           
   745                           ;main.c: 133:             TMR0 = 130;
   746     00A8  3082               	movlw	130
   747     00A9  0020               	movlb	0	; select bank0
   748     00AA  0095               	movwf	21	;volatile
   749     00AB                     l66:	
   750                           ;main.c: 135:             }
   751                           
   752                           
   753                           ;main.c: 134:             while(INTCONbits.TMR0IF == 0){
   754     00AB  1D0B               	btfss	11,2	;volatile
   755     00AC  28AE               	goto	u451
   756     00AD  28AF               	goto	u450
   757     00AE                     u451:
   758     00AE  28AB               	goto	l66
   759     00AF                     u450:
   760     00AF                     l68:
   761                           
   762                           ;main.c: 136:             INTCONbits.TMR0IF = 0;
   763     00AF  110B               	bcf	11,2	;volatile
   764     00B0                     l1079:
   765                           
   766                           ;main.c: 137:         }
   767     00B0  3001               	movlw	1
   768     00B1  0020               	movlb	0	; select bank0
   769     00B2  07A7               	addwf	main@i_325,f
   770     00B3  3000               	movlw	0
   771     00B4  3DA8               	addwfc	main@i_325+1,f
   772     00B5  0828               	movf	main@i_325+1,w
   773     00B6  3A80               	xorlw	128
   774     00B7  00A0               	movwf	??_main
   775     00B8  3083               	movlw	131
   776     00B9  0220               	subwf	??_main,w
   777     00BA  1D03               	skipz
   778     00BB  28BE               	goto	u465
   779     00BC  30E9               	movlw	233
   780     00BD  0227               	subwf	main@i_325,w
   781     00BE                     u465:
   782     00BE  1C03               	skipc
   783     00BF  28C1               	goto	u461
   784     00C0  28C2               	goto	u460
   785     00C1                     u461:
   786     00C1  28A8               	goto	l1077
   787     00C2                     u460:
   788     00C2  284A               	goto	l1039
   789     00C3  3180  2827         	ljmp	start
   790     00C5                     __end_of_main:
   791                           
   792                           	psect	text1
   793     014E                     __ptext1:	
   794 ;; *************** function _init_leds *****************
   795 ;; Defined at:
   796 ;;		line 32 in file "main.c"
   797 ;; Parameters:    Size  Location     Type
   798 ;;		None
   799 ;; Auto vars:     Size  Location     Type
   800 ;;		None
   801 ;; Return value:  Size  Location     Type
   802 ;;                  1    wreg      void 
   803 ;; Registers used:
   804 ;;		None
   805 ;; Tracked objects:
   806 ;;		On entry : 0/0
   807 ;;		On exit  : 0/0
   808 ;;		Unchanged: 0/0
   809 ;; Data sizes:     COMMON   BANK0   BANK1   BANK2   BANK3   BANK4   BANK5   BANK6   BANK7   BANK8   BANK9  BANK10  BANK1
      +1  BANK12  BANK13  BANK14  BANK15  BANK16  BANK17  BANK18  BANK19  BANK20  BANK21  BANK22  BANK23  BANK24  BANK25
   810 ;;      Params:         0       0       0       0       0       0       0       0       0       0       0       0       
      +0       0       0       0       0       0       0       0       0       0       0       0       0       0       0
   811 ;;      Locals:         0       0       0       0       0       0       0       0       0       0       0       0       
      +0       0       0       0       0       0       0       0       0       0       0       0       0       0       0
   812 ;;      Temps:          0       0       0       0       0       0       0       0       0       0       0       0       
      +0       0       0       0       0       0       0       0       0       0       0       0       0       0       0
   813 ;;      Totals:         0       0       0       0       0       0       0       0       0       0       0       0       
      +0       0       0       0       0       0       0       0       0       0       0       0       0       0       0
   814 ;;Total ram usage:        0 bytes
   815 ;; Hardware stack levels used: 1
   816 ;; Hardware stack levels required when called: 2
   817 ;; This function calls:
   818 ;;		Nothing
   819 ;; This function is called by:
   820 ;;		_main
   821 ;; This function uses a non-reentrant model
   822 ;;
   823                           
   824     014E                     _init_leds:	
   825                           ;psect for function _init_leds
   826                           
   827     014E                     l1013:	
   828                           ;incstack = 0
   829                           ; Regs used in _init_leds: []
   830                           
   831                           
   832                           ;main.c: 33:     TRISDbits.TRISD0 = 0;
   833     014E  0021               	movlb	1	; select bank1
   834     014F  100F               	bcf	15,0	;volatile
   835                           
   836                           ;main.c: 34:     TRISDbits.TRISD1 = 0;
   837     0150  108F               	bcf	15,1	;volatile
   838                           
   839                           ;main.c: 35:     TRISDbits.TRISD2 = 0;
   840     0151  110F               	bcf	15,2	;volatile
   841                           
   842                           ;main.c: 36:     TRISDbits.TRISD3 = 0;
   843     0152  118F               	bcf	15,3	;volatile
   844                           
   845                           ;main.c: 37:     TRISBbits.TRISB0 = 0;
   846     0153  100D               	bcf	13,0	;volatile
   847                           
   848                           ;main.c: 38:     TRISBbits.TRISB1 = 0;
   849     0154  108D               	bcf	13,1	;volatile
   850                           
   851                           ;main.c: 39:     TRISBbits.TRISB2 = 0;
   852     0155  110D               	bcf	13,2	;volatile
   853                           
   854                           ;main.c: 40:     TRISBbits.TRISB3 = 0;
   855     0156  118D               	bcf	13,3	;volatile
   856     0157                     l27:
   857     0157  0008               	return
   858     0158                     __end_of_init_leds:
   859                           
   860                           	psect	intentry
   861     0004                     __pintentry:	
   862 ;; *************** function _isr *****************
   863 ;; Defined at:
   864 ;;		line 81 in file "main.c"
   865 ;; Parameters:    Size  Location     Type
   866 ;;		None
   867 ;; Auto vars:     Size  Location     Type
   868 ;;		None
   869 ;; Return value:  Size  Location     Type
   870 ;;                  1    wreg      void 
   871 ;; Registers used:
   872 ;;		wreg, fsr0l, fsr0h, status,2, status,0, pclath, cstack
   873 ;; Tracked objects:
   874 ;;		On entry : 0/0
   875 ;;		On exit  : 0/0
   876 ;;		Unchanged: 0/0
   877 ;; Data sizes:     COMMON   BANK0   BANK1   BANK2   BANK3   BANK4   BANK5   BANK6   BANK7   BANK8   BANK9  BANK10  BANK1
      +1  BANK12  BANK13  BANK14  BANK15  BANK16  BANK17  BANK18  BANK19  BANK20  BANK21  BANK22  BANK23  BANK24  BANK25
   878 ;;      Params:         0       0       0       0       0       0       0       0       0       0       0       0       
      +0       0       0       0       0       0       0       0       0       0       0       0       0       0       0
   879 ;;      Locals:         0       0       0       0       0       0       0       0       0       0       0       0       
      +0       0       0       0       0       0       0       0       0       0       0       0       0       0       0
   880 ;;      Temps:          0       0       0       0       0       0       0       0       0       0       0       0       
      +0       0       0       0       0       0       0       0       0       0       0       0       0       0       0
   881 ;;      Totals:         0       0       0       0       0       0       0       0       0       0       0       0       
      +0       0       0       0       0       0       0       0       0       0       0       0       0       0       0
   882 ;;Total ram usage:        0 bytes
   883 ;; Hardware stack levels used: 1
   884 ;; Hardware stack levels required when called: 1
   885 ;; This function calls:
   886 ;;		___awmod
   887 ;;		_modif_led
   888 ;; This function is called by:
   889 ;;		Interrupt level 1
   890 ;; This function uses a non-reentrant model
   891 ;;
   892                           
   893     0004                     _isr:
   894                           
   895                           ;incstack = 0
   896     0004  147E               	bsf	int$flags,0	;set compiler interrupt flag (level 1)
   897                           
   898                           ; Regs used in _isr: [wreg-fsr0h+status,2+status,0+pclath+cstack]
   899     0005  3180               	pagesel	$
   900     0006                     i1l857:
   901                           
   902                           ;main.c: 82:     if (PIR1bits.TMR2IF == 1) {
   903     0006  0020               	movlb	0	; select bank0
   904     0007  1C91               	btfss	17,1	;volatile
   905     0008  280A               	goto	u29_21
   906     0009  280B               	goto	u29_20
   907     000A                     u29_21:
   908     000A  2825               	goto	i1l43
   909     000B                     u29_20:
   910     000B                     i1l859:
   911                           
   912                           ;main.c: 83:         tick_count++;
   913     000B  3001               	movlw	1
   914     000C  07F7               	addwf	_tick_count,f
   915     000D  3000               	movlw	0
   916     000E  3DF8               	addwfc	_tick_count+1,f
   917     000F                     i1l861:
   918                           
   919                           ;main.c: 84:         if (!(tick_count % 125)) {
   920     000F  307D               	movlw	125
   921     0010  00F0               	movwf	___awmod@divisor
   922     0011  3000               	movlw	0
   923     0012  00F1               	movwf	___awmod@divisor+1
   924     0013  0878               	movf	_tick_count+1,w
   925     0014  00F3               	movwf	___awmod@dividend+1
   926     0015  0877               	movf	_tick_count,w
   927     0016  00F2               	movwf	___awmod@dividend
   928     0017  3180  20C5  3180   	fcall	___awmod
   929     001A  0870               	movf	?___awmod,w
   930     001B  0471               	iorwf	?___awmod+1,w
   931     001C  1D03               	btfss	3,2
   932     001D  281F               	goto	u30_21
   933     001E  2820               	goto	u30_20
   934     001F                     u30_21:
   935     001F  2823               	goto	i1l865
   936     0020                     u30_20:
   937     0020                     i1l863:
   938                           
   939                           ;main.c: 85:             modif_led();
   940     0020  3181  2118  3180   	fcall	_modif_led
   941     0023                     i1l865:
   942                           
   943                           ;main.c: 87:         PIR1bits.TMR2IF = 0;
   944     0023  0020               	movlb	0	; select bank0
   945     0024  1091               	bcf	17,1	;volatile
   946     0025                     i1l43:
   947     0025  107E               	bcf	int$flags,0	;clear compiler interrupt flag (level 1)
   948     0026  0009               	retfie
   949     0027                     __end_of_isr:
   950                           
   951                           	psect	text3
   952     0118                     __ptext3:	
   953 ;; *************** function _modif_led *****************
   954 ;; Defined at:
   955 ;;		line 43 in file "main.c"
   956 ;; Parameters:    Size  Location     Type
   957 ;;		None
   958 ;; Auto vars:     Size  Location     Type
   959 ;;		None
   960 ;; Return value:  Size  Location     Type
   961 ;;                  1    wreg      void 
   962 ;; Registers used:
   963 ;;		wreg, fsr0l, fsr0h, status,2, status,0
   964 ;; Tracked objects:
   965 ;;		On entry : 0/0
   966 ;;		On exit  : 0/0
   967 ;;		Unchanged: 0/0
   968 ;; Data sizes:     COMMON   BANK0   BANK1   BANK2   BANK3   BANK4   BANK5   BANK6   BANK7   BANK8   BANK9  BANK10  BANK1
      +1  BANK12  BANK13  BANK14  BANK15  BANK16  BANK17  BANK18  BANK19  BANK20  BANK21  BANK22  BANK23  BANK24  BANK25
   969 ;;      Params:         0       0       0       0       0       0       0       0       0       0       0       0       
      +0       0       0       0       0       0       0       0       0       0       0       0       0       0       0
   970 ;;      Locals:         0       0       0       0       0       0       0       0       0       0       0       0       
      +0       0       0       0       0       0       0       0       0       0       0       0       0       0       0
   971 ;;      Temps:          0       0       0       0       0       0       0       0       0       0       0       0       
      +0       0       0       0       0       0       0       0       0       0       0       0       0       0       0
   972 ;;      Totals:         0       0       0       0       0       0       0       0       0       0       0       0       
      +0       0       0       0       0       0       0       0       0       0       0       0       0       0       0
   973 ;;Total ram usage:        0 bytes
   974 ;; Hardware stack levels used: 1
   975 ;; This function calls:
   976 ;;		Nothing
   977 ;; This function is called by:
   978 ;;		_isr
   979 ;; This function uses a non-reentrant model
   980 ;;
   981                           
   982     0118                     _modif_led:	
   983                           ;psect for function _modif_led
   984                           
   985     0118                     i1l599:	
   986                           ;incstack = 0
   987                           ; Regs used in _modif_led: [wreg-fsr0h+status,2+status,0]
   988                           
   989                           
   990                           ;main.c: 44:     switch(tick_count) {
   991     0118  292B               	goto	i1l605
   992     0119                     i1l31:	
   993                           ;main.c: 49:         case 250:
   994                           
   995                           
   996                           ;main.c: 50:             PORTDbits.RD0 = 0;
   997     0119  0020               	movlb	0	; select bank0
   998     011A  100F               	bcf	15,0	;volatile
   999                           
  1000                           ;main.c: 51:             PORTDbits.RD1 = 1;
  1001     011B  148F               	bsf	15,1	;volatile
  1002                           
  1003                           ;main.c: 52:             break;
  1004     011C  294D               	goto	i1l36
  1005     011D                     i1l33:	
  1006                           ;main.c: 57:         case 500:
  1007                           
  1008                           
  1009                           ;main.c: 58:             PORTDbits.RD1 = 0;
  1010     011D  0020               	movlb	0	; select bank0
  1011     011E  108F               	bcf	15,1	;volatile
  1012                           
  1013                           ;main.c: 59:             PORTDbits.RD2 = 1;
  1014     011F  150F               	bsf	15,2	;volatile
  1015                           
  1016                           ;main.c: 60:             break;
  1017     0120  294D               	goto	i1l36
  1018     0121                     i1l34:	
  1019                           ;main.c: 65:         case 750:
  1020                           
  1021                           
  1022                           ;main.c: 66:             PORTDbits.RD2 = 0;
  1023     0121  0020               	movlb	0	; select bank0
  1024     0122  110F               	bcf	15,2	;volatile
  1025                           
  1026                           ;main.c: 67:             PORTDbits.RD3 = 1;
  1027     0123  158F               	bsf	15,3	;volatile
  1028                           
  1029                           ;main.c: 68:             break;
  1030     0124  294D               	goto	i1l36
  1031     0125                     i1l35:	
  1032                           ;main.c: 73:         case 1000:
  1033                           
  1034                           
  1035                           ;main.c: 74:             PORTDbits.RD3 = 0;
  1036     0125  0020               	movlb	0	; select bank0
  1037     0126  118F               	bcf	15,3	;volatile
  1038                           
  1039                           ;main.c: 75:             PORTDbits.RD0 = 1;
  1040     0127  140F               	bsf	15,0	;volatile
  1041     0128                     i1l601:
  1042                           
  1043                           ;main.c: 76:             tick_count = 0;
  1044     0128  01F7               	clrf	_tick_count
  1045     0129  01F8               	clrf	_tick_count+1
  1046                           
  1047                           ;main.c: 77:             break;
  1048     012A  294D               	goto	i1l36
  1049     012B                     i1l605:
  1050                           
  1051                           ; Switch on 2 bytes has been partitioned into a top level switch of size 1, and 4 sub-sw
      +                          itches
  1052                           ; Switch size 1, requested type "simple"
  1053                           ; Number of cases is 4, Range of values is 0 to 3
  1054                           ; switch strategies available:
  1055                           ; Name         Instructions Cycles
  1056                           ; simple_byte           13     7 (average)
  1057                           ; direct_byte           14     6 (fixed)
  1058                           ; jumptable            260     6 (fixed)
  1059                           ;	Chosen strategy is simple_byte
  1060     012B  0878               	movf	_tick_count+1,w
  1061     012C  3A00               	xorlw	0	; case 0
  1062     012D  1903               	skipnz
  1063     012E  2939               	goto	i1l1161
  1064     012F  3A01               	xorlw	1	; case 1
  1065     0130  1903               	skipnz
  1066     0131  293E               	goto	i1l1163
  1067     0132  3A03               	xorlw	3	; case 2
  1068     0133  1903               	skipnz
  1069     0134  2943               	goto	i1l1165
  1070     0135  3A01               	xorlw	1	; case 3
  1071     0136  1903               	skipnz
  1072     0137  2948               	goto	i1l1167
  1073     0138  294D               	goto	i1l36
  1074     0139                     i1l1161:
  1075                           
  1076                           ; Switch size 1, requested type "simple"
  1077                           ; Number of cases is 1, Range of values is 250 to 250
  1078                           ; switch strategies available:
  1079                           ; Name         Instructions Cycles
  1080                           ; simple_byte            4     3 (average)
  1081                           ; direct_byte           11     9 (fixed)
  1082                           ; jumptable            263     9 (fixed)
  1083                           ;	Chosen strategy is simple_byte
  1084     0139  0877               	movf	_tick_count,w
  1085     013A  3AFA               	xorlw	250	; case 250
  1086     013B  1903               	skipnz
  1087     013C  2919               	goto	i1l31
  1088     013D  294D               	goto	i1l36
  1089     013E                     i1l1163:
  1090                           
  1091                           ; Switch size 1, requested type "simple"
  1092                           ; Number of cases is 1, Range of values is 244 to 244
  1093                           ; switch strategies available:
  1094                           ; Name         Instructions Cycles
  1095                           ; simple_byte            4     3 (average)
  1096                           ; direct_byte           11     9 (fixed)
  1097                           ; jumptable            263     9 (fixed)
  1098                           ;	Chosen strategy is simple_byte
  1099     013E  0877               	movf	_tick_count,w
  1100     013F  3AF4               	xorlw	244	; case 244
  1101     0140  1903               	skipnz
  1102     0141  291D               	goto	i1l33
  1103     0142  294D               	goto	i1l36
  1104     0143                     i1l1165:
  1105                           
  1106                           ; Switch size 1, requested type "simple"
  1107                           ; Number of cases is 1, Range of values is 238 to 238
  1108                           ; switch strategies available:
  1109                           ; Name         Instructions Cycles
  1110                           ; simple_byte            4     3 (average)
  1111                           ; direct_byte           11     9 (fixed)
  1112                           ; jumptable            263     9 (fixed)
  1113                           ;	Chosen strategy is simple_byte
  1114     0143  0877               	movf	_tick_count,w
  1115     0144  3AEE               	xorlw	238	; case 238
  1116     0145  1903               	skipnz
  1117     0146  2921               	goto	i1l34
  1118     0147  294D               	goto	i1l36
  1119     0148                     i1l1167:
  1120                           
  1121                           ; Switch size 1, requested type "simple"
  1122                           ; Number of cases is 1, Range of values is 232 to 232
  1123                           ; switch strategies available:
  1124                           ; Name         Instructions Cycles
  1125                           ; simple_byte            4     3 (average)
  1126                           ; direct_byte           11     9 (fixed)
  1127                           ; jumptable            263     9 (fixed)
  1128                           ;	Chosen strategy is simple_byte
  1129     0148  0877               	movf	_tick_count,w
  1130     0149  3AE8               	xorlw	232	; case 232
  1131     014A  1903               	skipnz
  1132     014B  2925               	goto	i1l35
  1133     014C  294D               	goto	i1l36
  1134     014D                     i1l36:
  1135     014D  0008               	return
  1136     014E                     __end_of_modif_led:
  1137                           
  1138                           	psect	text4
  1139     00C5                     __ptext4:	
  1140 ;; *************** function ___awmod *****************
  1141 ;; Defined at:
  1142 ;;		line 5 in file "C:\Program Files\Microchip\xc8\v2.45\pic\sources\c99\common\awmod.c"
  1143 ;; Parameters:    Size  Location     Type
  1144 ;;  divisor         2    0[COMMON] int 
  1145 ;;  dividend        2    2[COMMON] int 
  1146 ;; Auto vars:     Size  Location     Type
  1147 ;;  sign            1    6[COMMON] unsigned char 
  1148 ;;  counter         1    5[COMMON] unsigned char 
  1149 ;; Return value:  Size  Location     Type
  1150 ;;                  2    0[COMMON] int 
  1151 ;; Registers used:
  1152 ;;		wreg, status,2, status,0
  1153 ;; Tracked objects:
  1154 ;;		On entry : 0/0
  1155 ;;		On exit  : 0/0
  1156 ;;		Unchanged: 0/0
  1157 ;; Data sizes:     COMMON   BANK0   BANK1   BANK2   BANK3   BANK4   BANK5   BANK6   BANK7   BANK8   BANK9  BANK10  BANK1
      +1  BANK12  BANK13  BANK14  BANK15  BANK16  BANK17  BANK18  BANK19  BANK20  BANK21  BANK22  BANK23  BANK24  BANK25
  1158 ;;      Params:         4       0       0       0       0       0       0       0       0       0       0       0       
      +0       0       0       0       0       0       0       0       0       0       0       0       0       0       0
  1159 ;;      Locals:         2       0       0       0       0       0       0       0       0       0       0       0       
      +0       0       0       0       0       0       0       0       0       0       0       0       0       0       0
  1160 ;;      Temps:          1       0       0       0       0       0       0       0       0       0       0       0       
      +0       0       0       0       0       0       0       0       0       0       0       0       0       0       0
  1161 ;;      Totals:         7       0       0       0       0       0       0       0       0       0       0       0       
      +0       0       0       0       0       0       0       0       0       0       0       0       0       0       0
  1162 ;;Total ram usage:        7 bytes
  1163 ;; Hardware stack levels used: 1
  1164 ;; This function calls:
  1165 ;;		Nothing
  1166 ;; This function is called by:
  1167 ;;		_isr
  1168 ;; This function uses a non-reentrant model
  1169 ;;
  1170                           
  1171     00C5                     ___awmod:	
  1172                           ;psect for function ___awmod
  1173                           
  1174     00C5                     i1l819:	
  1175                           ;incstack = 0
  1176                           ; Regs used in ___awmod: [wreg+status,2+status,0]
  1177                           
  1178     00C5  01F6               	clrf	___awmod@sign
  1179     00C6                     i1l821:
  1180     00C6  1FF3               	btfss	___awmod@dividend+1,7
  1181     00C7  28C9               	goto	u20_21
  1182     00C8  28CA               	goto	u20_20
  1183     00C9                     u20_21:
  1184     00C9  28D1               	goto	i1l827
  1185     00CA                     u20_20:
  1186     00CA                     i1l823:
  1187     00CA  09F2               	comf	___awmod@dividend,f
  1188     00CB  09F3               	comf	___awmod@dividend+1,f
  1189     00CC  0AF2               	incf	___awmod@dividend,f
  1190     00CD  1903               	skipnz
  1191     00CE  0AF3               	incf	___awmod@dividend+1,f
  1192     00CF                     i1l825:
  1193     00CF  01F6               	clrf	___awmod@sign
  1194     00D0  0AF6               	incf	___awmod@sign,f
  1195     00D1                     i1l827:
  1196     00D1  1FF1               	btfss	___awmod@divisor+1,7
  1197     00D2  28D4               	goto	u21_21
  1198     00D3  28D5               	goto	u21_20
  1199     00D4                     u21_21:
  1200     00D4  28DA               	goto	i1l831
  1201     00D5                     u21_20:
  1202     00D5                     i1l829:
  1203     00D5  09F0               	comf	___awmod@divisor,f
  1204     00D6  09F1               	comf	___awmod@divisor+1,f
  1205     00D7  0AF0               	incf	___awmod@divisor,f
  1206     00D8  1903               	skipnz
  1207     00D9  0AF1               	incf	___awmod@divisor+1,f
  1208     00DA                     i1l831:
  1209     00DA  0870               	movf	___awmod@divisor,w
  1210     00DB  0471               	iorwf	___awmod@divisor+1,w
  1211     00DC  1903               	btfsc	3,2
  1212     00DD  28DF               	goto	u22_21
  1213     00DE  28E0               	goto	u22_20
  1214     00DF                     u22_21:
  1215     00DF  2909               	goto	i1l849
  1216     00E0                     u22_20:
  1217     00E0                     i1l833:
  1218     00E0  01F5               	clrf	___awmod@counter
  1219     00E1  0AF5               	incf	___awmod@counter,f
  1220     00E2  28EC               	goto	i1l839
  1221     00E3                     i1l835:
  1222     00E3  3001               	movlw	1
  1223     00E4                     u23_25:
  1224     00E4  35F0               	lslf	___awmod@divisor,f
  1225     00E5  0DF1               	rlf	___awmod@divisor+1,f
  1226     00E6  0B89               	decfsz	9,f
  1227     00E7  28E4               	goto	u23_25
  1228     00E8                     i1l837:
  1229     00E8  3001               	movlw	1
  1230     00E9  00F4               	movwf	??___awmod
  1231     00EA  0874               	movf	??___awmod,w
  1232     00EB  07F5               	addwf	___awmod@counter,f
  1233     00EC                     i1l839:
  1234     00EC  1FF1               	btfss	___awmod@divisor+1,7
  1235     00ED  28EF               	goto	u24_21
  1236     00EE  28F0               	goto	u24_20
  1237     00EF                     u24_21:
  1238     00EF  28E3               	goto	i1l835
  1239     00F0                     u24_20:
  1240     00F0                     i1l841:
  1241     00F0  0871               	movf	___awmod@divisor+1,w
  1242     00F1  0273               	subwf	___awmod@dividend+1,w
  1243     00F2  1D03               	skipz
  1244     00F3  28F6               	goto	u25_25
  1245     00F4  0870               	movf	___awmod@divisor,w
  1246     00F5  0272               	subwf	___awmod@dividend,w
  1247     00F6                     u25_25:
  1248     00F6  1C03               	skipc
  1249     00F7  28F9               	goto	u25_21
  1250     00F8  28FA               	goto	u25_20
  1251     00F9                     u25_21:
  1252     00F9  28FE               	goto	i1l845
  1253     00FA                     u25_20:
  1254     00FA                     i1l843:
  1255     00FA  0870               	movf	___awmod@divisor,w
  1256     00FB  02F2               	subwf	___awmod@dividend,f
  1257     00FC  0871               	movf	___awmod@divisor+1,w
  1258     00FD  3BF3               	subwfb	___awmod@dividend+1,f
  1259     00FE                     i1l845:
  1260     00FE  3001               	movlw	1
  1261     00FF                     u26_25:
  1262     00FF  36F1               	lsrf	___awmod@divisor+1,f
  1263     0100  0CF0               	rrf	___awmod@divisor,f
  1264     0101  0B89               	decfsz	9,f
  1265     0102  28FF               	goto	u26_25
  1266     0103                     i1l847:
  1267     0103  3001               	movlw	1
  1268     0104  02F5               	subwf	___awmod@counter,f
  1269     0105  1D03               	btfss	3,2
  1270     0106  2908               	goto	u27_21
  1271     0107  2909               	goto	u27_20
  1272     0108                     u27_21:
  1273     0108  28F0               	goto	i1l841
  1274     0109                     u27_20:
  1275     0109                     i1l849:
  1276     0109  0876               	movf	___awmod@sign,w
  1277     010A  1903               	btfsc	3,2
  1278     010B  290D               	goto	u28_21
  1279     010C  290E               	goto	u28_20
  1280     010D                     u28_21:
  1281     010D  2913               	goto	i1l853
  1282     010E                     u28_20:
  1283     010E                     i1l851:
  1284     010E  09F2               	comf	___awmod@dividend,f
  1285     010F  09F3               	comf	___awmod@dividend+1,f
  1286     0110  0AF2               	incf	___awmod@dividend,f
  1287     0111  1903               	skipnz
  1288     0112  0AF3               	incf	___awmod@dividend+1,f
  1289     0113                     i1l853:
  1290     0113  0873               	movf	___awmod@dividend+1,w
  1291     0114  00F1               	movwf	?___awmod+1
  1292     0115  0872               	movf	___awmod@dividend,w
  1293     0116  00F0               	movwf	?___awmod
  1294     0117                     i1l305:
  1295     0117  0008               	return
  1296     0118                     __end_of___awmod:
  1297     007E                     btemp	set	126	;btemp
  1298     007E                     int$flags	set	126
  1299     007E                     wtemp0	set	126
  1300                           
  1301                           	psect	config
  1302                           
  1303                           ;Config register CONFIG1 @ 0x8007
  1304                           ;	Oscillator Selection Bits
  1305                           ;	FOSC = HS, HS Oscillator, High-speed crystal/resonator connected between OSC1 and OSC2
      +                           pins
  1306                           ;	Watchdog Timer Enable
  1307                           ;	WDTE = SWDTEN, WDT controlled by the SWDTEN bit in the WDTCON register
  1308                           ;	Power-up Timer Enable
  1309                           ;	PWRTE = OFF, PWRT disabled
  1310                           ;	MCLR Pin Function Select
  1311                           ;	MCLRE = ON, MCLR/VPP pin function is MCLR
  1312                           ;	Flash Program Memory Code Protection
  1313                           ;	CP = OFF, Program memory code protection is disabled
  1314                           ;	Brown-out Reset Enable
  1315                           ;	BOREN = ON, Brown-out Reset enabled
  1316                           ;	Clock Out Enable
  1317                           ;	CLKOUTEN = OFF, CLKOUT function is disabled. I/O or oscillator function on the CLKOUT 
      +                          pin
  1318                           ;	Internal/External Switchover Mode
  1319                           ;	IESO = ON, Internal/External Switchover Mode is enabled
  1320                           ;	Fail-Safe Clock Monitor Enable
  1321                           ;	FCMEN = ON, Fail-Safe Clock Monitor is enabled
  1322     8007                     	org	32775
  1323     8007  3FEA               	dw	16362
  1324                           
  1325                           ;Config register CONFIG2 @ 0x8008
  1326                           ;	Flash Memory Self-Write Protection
  1327                           ;	WRT = OFF, Write protection off
  1328                           ;	Peripheral Pin Select one-way control
  1329                           ;	PPS1WAY = OFF, The PPSLOCK bit can be set and cleared repeatedly by software
  1330                           ;	Zero-cross detect disable
  1331                           ;	ZCDDIS = ON, ZCD disabled. ZCD can be enabled by setting the ZCDSEN bit of ZCDCON
  1332                           ;	Phase Lock Loop enable
  1333                           ;	PLLEN = OFF, 4x PLL is disabled
  1334                           ;	Stack Overflow/Underflow Reset Enable
  1335                           ;	STVREN = ON, Stack Overflow or Underflow will cause a Reset
  1336                           ;	Brown-out Reset Voltage Selection
  1337                           ;	BORV = LO, Brown-out Reset Voltage (Vbor), low trip point selected.
  1338                           ;	Low-Power Brown Out Reset
  1339                           ;	LPBOR = OFF, Low-Power BOR is disabled
  1340                           ;	In-Circuit Debugger Mode
  1341                           ;	DEBUG = 0x1, unprogrammed default
  1342                           ;	Low-Voltage Programming Enable
  1343                           ;	LVP = OFF, High-voltage on MCLR/VPP must be used for programming
  1344     8008                     	org	32776
  1345     8008  1EFB               	dw	7931

Data Sizes:
    Strings     0
    Constant    0
    Data        0
    BSS         2
    Persistent  32
    Stack       0

Auto Spaces:
    Space          Size  Autos    Used
    COMMON           14      7       9
    BANK0            80      9       9
    BANK1            80      0       0
    BANK2            80      0       0
    BANK3            80      0       0
    BANK4            80      0       0
    BANK5            80      0       0
    BANK6            80      0       0
    BANK7            80      0       0
    BANK8            80      0       0
    BANK9            80      0       0
    BANK10           80      0       0
    BANK11           80      0       0
    BANK12           80      0       0
    BANK13           80      0       0
    BANK14           80      0       0
    BANK15           80      0       0
    BANK16           80      0       0
    BANK17           80      0       0
    BANK18           80      0       0
    BANK19           80      0       0
    BANK20           80      0       0
    BANK21           80      0       0
    BANK22           80      0       0
    BANK23           80      0       0
    BANK24           80      0       0
    BANK25           32      0       0

Pointer List with Targets:

    None.

Critical Paths under _main in COMMON

    None.

Critical Paths under _isr in COMMON

    _isr->___awmod

Critical Paths under _main in BANK0

    None.

Critical Paths under _isr in BANK0

    None.

Critical Paths under _main in BANK1

    None.

Critical Paths under _isr in BANK1

    None.

Critical Paths under _main in BANK2

    None.

Critical Paths under _isr in BANK2

    None.

Critical Paths under _main in BANK3

    None.

Critical Paths under _isr in BANK3

    None.

Critical Paths under _main in BANK4

    None.

Critical Paths under _isr in BANK4

    None.

Critical Paths under _main in BANK5

    None.

Critical Paths under _isr in BANK5

    None.

Critical Paths under _main in BANK6

    None.

Critical Paths under _isr in BANK6

    None.

Critical Paths under _main in BANK7

    None.

Critical Paths under _isr in BANK7

    None.

Critical Paths under _main in BANK8

    None.

Critical Paths under _isr in BANK8

    None.

Critical Paths under _main in BANK9

    None.

Critical Paths under _isr in BANK9

    None.

Critical Paths under _main in BANK10

    None.

Critical Paths under _isr in BANK10

    None.

Critical Paths under _main in BANK11

    None.

Critical Paths under _isr in BANK11

    None.

Critical Paths under _main in BANK12

    None.

Critical Paths under _isr in BANK12

    None.

Critical Paths under _main in BANK13

    None.

Critical Paths under _isr in BANK13

    None.

Critical Paths under _main in BANK14

    None.

Critical Paths under _isr in BANK14

    None.

Critical Paths under _main in BANK15

    None.

Critical Paths under _isr in BANK15

    None.

Critical Paths under _main in BANK16

    None.

Critical Paths under _isr in BANK16

    None.

Critical Paths under _main in BANK17

    None.

Critical Paths under _isr in BANK17

    None.

Critical Paths under _main in BANK18

    None.

Critical Paths under _isr in BANK18

    None.

Critical Paths under _main in BANK19

    None.

Critical Paths under _isr in BANK19

    None.

Critical Paths under _main in BANK20

    None.

Critical Paths under _isr in BANK20

    None.

Critical Paths under _main in BANK21

    None.

Critical Paths under _isr in BANK21

    None.

Critical Paths under _main in BANK22

    None.

Critical Paths under _isr in BANK22

    None.

Critical Paths under _main in BANK23

    None.

Critical Paths under _isr in BANK23

    None.

Critical Paths under _main in BANK24

    None.

Critical Paths under _isr in BANK24

    None.

Critical Paths under _main in BANK25

    None.

Critical Paths under _isr in BANK25

    None.

Call Graph Tables:

 ---------------------------------------------------------------------------------
 (Depth) Function   	        Calls       Base Space   Used Autos Params    Refs
 ---------------------------------------------------------------------------------
 (0) _main                                                 9     9      0     272
                                              0 BANK0      9     9      0
                          _init_leds
 ---------------------------------------------------------------------------------
 (1) _init_leds                                            0     0      0       0
 ---------------------------------------------------------------------------------
 Estimated maximum stack depth 1
 ---------------------------------------------------------------------------------
 (Depth) Function   	        Calls       Base Space   Used Autos Params    Refs
 ---------------------------------------------------------------------------------
 (2) _isr                                                  0     0      0     448
                            ___awmod
                          _modif_led
 ---------------------------------------------------------------------------------
 (3) _modif_led                                            0     0      0       0
 ---------------------------------------------------------------------------------
 (3) ___awmod                                              7     3      4     448
                                              0 COMMON     7     3      4
 ---------------------------------------------------------------------------------
 Estimated maximum stack depth 3
 ---------------------------------------------------------------------------------

 Call Graph Graphs:

 _main (ROOT)
   _init_leds

 _isr (ROOT)
   ___awmod
   _modif_led

 Address spaces:
Name               Size   Autos  Total    Cost      Usage
BIGRAM             7F0      0       0       0        0.0%
NULL                 0      0       0       0        0.0%
CODE                 0      0       0       0        0.0%
BITCOMMON            E      0       0       1        0.0%
BITSFR0              0      0       0       1        0.0%
SFR0                 0      0       0       1        0.0%
COMMON               E      7       9       2       64.3%
BITSFR1              0      0       0       2        0.0%
SFR1                 0      0       0       2        0.0%
BITSFR2              0      0       0       3        0.0%
SFR2                 0      0       0       3        0.0%
STACK                0      0       0       3        0.0%
BITBANK0            50      0       0       4        0.0%
BITSFR3              0      0       0       4        0.0%
SFR3                 0      0       0       4        0.0%
BANK0               50      9       9       5       11.2%
BITSFR4              0      0       0       5        0.0%
SFR4                 0      0       0       5        0.0%
BITBANK1            50      0       0       6        0.0%
BITSFR5              0      0       0       6        0.0%
SFR5                 0      0       0       6        0.0%
BANK1               50      0       0       7        0.0%
BITSFR6              0      0       0       7        0.0%
SFR6                 0      0       0       7        0.0%
BITBANK2            50      0       0       8        0.0%
BITSFR7              0      0       0       8        0.0%
SFR7                 0      0       0       8        0.0%
BANK2               50      0       0       9        0.0%
BITSFR8              0      0       0       9        0.0%
SFR8                 0      0       0       9        0.0%
BITBANK3            50      0       0      10        0.0%
BITSFR9              0      0       0      10        0.0%
SFR9                 0      0       0      10        0.0%
BANK3               50      0       0      11        0.0%
BITSFR10             0      0       0      11        0.0%
SFR10                0      0       0      11        0.0%
BITBANK4            50      0       0      12        0.0%
BITSFR11             0      0       0      12        0.0%
SFR11                0      0       0      12        0.0%
BANK4               50      0       0      13        0.0%
BITSFR12             0      0       0      13        0.0%
SFR12                0      0       0      13        0.0%
BITSFR13             0      0       0      14        0.0%
SFR13                0      0       0      14        0.0%
ABS                  0      0      12      14        0.0%
BITBANK5            50      0       0      15        0.0%
BITSFR14             0      0       0      15        0.0%
SFR14                0      0       0      15        0.0%
BANK5               50      0       0      16        0.0%
BITSFR15             0      0       0      16        0.0%
SFR15                0      0       0      16        0.0%
BITBANK6            50      0       0      17        0.0%
BITSFR16             0      0       0      17        0.0%
SFR16                0      0       0      17        0.0%
BANK6               50      0       0      18        0.0%
BITSFR17             0      0       0      18        0.0%
SFR17                0      0       0      18        0.0%
BITBANK7            50      0       0      19        0.0%
BITSFR18             0      0       0      19        0.0%
SFR18                0      0       0      19        0.0%
BANK7               50      0       0      20        0.0%
BITSFR19             0      0       0      20        0.0%
SFR19                0      0       0      20        0.0%
BITBANK8            50      0       0      21        0.0%
BITSFR20             0      0       0      21        0.0%
SFR20                0      0       0      21        0.0%
BANK8               50      0       0      22        0.0%
BITSFR21             0      0       0      22        0.0%
SFR21                0      0       0      22        0.0%
BITBANK9            50      0       0      23        0.0%
BITSFR22             0      0       0      23        0.0%
SFR22                0      0       0      23        0.0%
BANK9               50      0       0      24        0.0%
BITSFR23             0      0       0      24        0.0%
SFR23                0      0       0      24        0.0%
BITBANK10           50      0       0      25        0.0%
BITSFR24             0      0       0      25        0.0%
SFR24                0      0       0      25        0.0%
BANK10              50      0       0      26        0.0%
BITSFR25             0      0       0      26        0.0%
SFR25                0      0       0      26        0.0%
BITBANK11           50      0       0      27        0.0%
BITSFR26             0      0       0      27        0.0%
SFR26                0      0       0      27        0.0%
BITSFR27             0      0       0      28        0.0%
SFR27                0      0       0      28        0.0%
DATA                 0      0      12      28        0.0%
BANK11              50      0       0      29        0.0%
BITSFR28             0      0       0      29        0.0%
SFR28                0      0       0      29        0.0%
BITBANK12           50      0       0      30        0.0%
BITSFR29             0      0       0      30        0.0%
SFR29                0      0       0      30        0.0%
BANK12              50      0       0      31        0.0%
BITSFR30             0      0       0      31        0.0%
SFR30                0      0       0      31        0.0%
BITBANK13           50      0       0      32        0.0%
BITSFR31             0      0       0      32        0.0%
SFR31                0      0       0      32        0.0%
BANK13              50      0       0      33        0.0%
BITBANK14           50      0       0      34        0.0%
BANK14              50      0       0      35        0.0%
BITBANK15           50      0       0      36        0.0%
BANK15              50      0       0      37        0.0%
BITBANK16           50      0       0      38        0.0%
BANK16              50      0       0      39        0.0%
BITBANK17           50      0       0      40        0.0%
BANK17              50      0       0      41        0.0%
BITBANK18           50      0       0      42        0.0%
BANK18              50      0       0      43        0.0%
BITBANK19           50      0       0      44        0.0%
BANK19              50      0       0      45        0.0%
BITBANK20           50      0       0      46        0.0%
BANK20              50      0       0      47        0.0%
BITBANK21           50      0       0      48        0.0%
BANK21              50      0       0      49        0.0%
BITBANK22           50      0       0      50        0.0%
BANK22              50      0       0      51        0.0%
BITBANK23           50      0       0      52        0.0%
BANK23              50      0       0      53        0.0%
BITBANK24           50      0       0      54        0.0%
BANK24              50      0       0      55        0.0%
BITBANK25           20      0       0      56        0.0%
BANK25              20      0       0      57        0.0%


Microchip Technology PIC Macro Assembler V2.45 build 20230818022343 
Symbol Table                                                                                   Tue Feb 06 15:21:21 2024

                     l50 0068                       l27 0157                       l51 0051  
                     l60 00A4                       l61 008D                       l53 0055  
                     l63 0091                       l55 0086                       l56 006F  
                     l66 00AB                       l58 0073                       l68 00AF  
                    u400 0068                      u401 0067                      u410 0073  
                    u411 0072                      u420 0086                      u421 0085  
                    u405 0064                      u430 0091                      _PR2 001B  
                    u431 0090                      u440 00A4                      u441 00A3  
                    u425 0082                      u450 00AF                      u451 00AE  
                    u460 00C2                      u461 00C1                      u445 00A0  
                    u390 0055                      u391 0054                      u465 00BE  
                    _isr 0004             ___awmod@sign 0076                      wreg 0009  
                   l1013 014E                     l1021 0038                     l1031 0040  
                   l1023 003A                     l1015 002F                     l1041 004C  
                   l1033 0045                     l1025 003B                     l1017 0032  
                   l1051 006A                     l1035 0046                     l1027 003C  
                   l1019 0034                     l1061 0088                     l1037 0047  
                   l1029 003E                     l1071 00A6                     l1047 004E  
                   l1039 004A                     l1057 006C                     l1049 0056  
                   l1067 008A                     l1059 0074                     l1077 00A8  
                   l1069 0092                     l1079 00B0                     ?_isr 0070  
                   i1l31 0119                     i1l33 011D                     i1l34 0121  
                   i1l35 0125                     i1l43 0025                     i1l36 014D  
                   _TMR0 0015                     _main 002F                     btemp 007E  
                   start 0027                    ??_isr 0077                    ?_main 0070  
        __end_of___awmod 0118                    i1l305 0117                    i1l601 0128  
                  i1l605 012B                    i1l821 00C6                    i1l831 00DA  
                  i1l823 00CA                    i1l841 00F0                    i1l833 00E0  
                  i1l825 00CF                    i1l851 010E                    i1l843 00FA  
                  i1l835 00E3                    i1l827 00D1                    i1l819 00C5  
                  i1l853 0113                    i1l845 00FE                    i1l837 00E8  
                  i1l829 00D5                    i1l861 000F                    i1l847 0103  
                  i1l839 00EC                    i1l599 0118                    i1l863 0020  
                  i1l849 0109                    i1l865 0023                    i1l857 0006  
                  i1l859 000B                    u20_20 00CA                    u20_21 00C9  
                  u21_20 00D5                    u21_21 00D4                    u22_20 00E0  
                  u30_20 0020                    u22_21 00DF                    u30_21 001F  
                  u23_25 00E4                    u24_20 00F0                    u24_21 00EF  
                  u25_20 00FA                    u25_21 00F9                    u25_25 00F6  
                  u26_25 00FF                    u27_20 0109                    u27_21 0108  
                  u28_20 010E                    u28_21 010D                    u29_20 000B  
                  u29_21 000A                    main@i 0021                    status 0003  
                  wtemp0 007E          __initialization 0029             __end_of_main 00C5  
                 ??_main 0020                   i1l1161 0139                   i1l1163 013E  
                 i1l1165 0143                   i1l1167 0148                ??___awmod 0074  
        ___awmod@divisor 0070          ___awmod@counter 0075  __end_of__initialization 002B  
         __pcstackCOMMON 0070           _OPTION_REGbits 0095               __pmaintext 002F  
             __pintentry 0004                  ___awmod 00C5                  __ptext1 014E  
                __ptext3 0118                  __ptext4 00C5                _T2CONbits 001C  
      __end_of_init_leds 0158         ___awmod@dividend 0072        __end_of_modif_led 014E  
   end_of_initialization 002B               _tick_count 0077                _PORTBbits 000D  
              _PORTDbits 000F                _TRISBbits 008D                _TRISDbits 008F  
    start_initialization 0029              __end_of_isr 0027              __pbssCOMMON 0077  
              ___latbits 0003            __pcstackBANK0 0020                 ?___awmod 0070  
              _init_leds 014E                _modif_led 0118                 _PIE1bits 0091  
               _PIR1bits 0011                main@i_323 0023                main@i_324 0025  
              main@i_325 0027               ?_init_leds 0070               ?_modif_led 0070  
               int$flags 007E               _INTCONbits 000B              ??_init_leds 0020  
               intlevel1 0000              ??_modif_led 0070  
