

Microchip MPLAB XC8 Assembler V2.45 build 20230818022343 
                                                                                               Mon Jan 22 10:16:08 2024

Microchip MPLAB XC8 C Compiler v2.45 (Free license) build 20230818022343 Og1 
     1                           	processor	16F1719
     2                           	pagewidth 120
     3                           	opt	flic
     4                           	psect	cinit,global,class=CODE,merge=1,delta=2
     5                           	psect	cstackCOMMON,global,class=COMMON,space=1,delta=1,noexec
     6                           	psect	maintext,global,class=CODE,merge=1,split=1,delta=2
     7                           	psect	text1,local,class=CODE,merge=1,delta=2
     8                           	psect	text2,local,class=CODE,merge=1,delta=2
     9                           	psect	config,global,abs,ovrld,class=CONFIG,space=4,delta=2,noexec
    10                           	dabs	1,0x7E,2
    11     0000                     
    12                           ; Generated 06/07/2023 GMT
    13                           ; 
    14                           ; Copyright © 2023, Microchip Technology Inc. and its subsidiaries ("Microchip")
    15                           ; All rights reserved.
    16                           ; 
    17                           ; This software is developed by Microchip Technology Inc. and its subsidiaries ("Microch
      +                          ip").
    18                           ; 
    19                           ; Redistribution and use in source and binary forms, with or without modification, are
    20                           ; permitted provided that the following conditions are met:
    21                           ; 
    22                           ;     1. Redistributions of source code must retain the above copyright notice, this lis
      +                          t of
    23                           ;        conditions and the following disclaimer.
    24                           ; 
    25                           ;     2. Redistributions in binary form must reproduce the above copyright notice, this 
      +                          list
    26                           ;        of conditions and the following disclaimer in the documentation and/or other
    27                           ;        materials provided with the distribution. Publication is not required when
    28                           ;        this file is used in an embedded application.
    29                           ; 
    30                           ;     3. Microchip's name may not be used to endorse or promote products derived from th
      +                          is
    31                           ;        software without specific prior written permission.
    32                           ; 
    33                           ; THIS SOFTWARE IS PROVIDED BY MICROCHIP "AS IS" AND ANY EXPRESS OR IMPLIED WARRANTIES,
    34                           ; INCLUDING, BUT NOT LIMITED TO, THE IMPLIED WARRANTIES OF MERCHANTABILITY AND FITNESS F
      +                          OR
    35                           ; PURPOSE ARE DISCLAIMED.  IN NO EVENT SHALL MICROCHIP BE LIABLE FOR ANY DIRECT, INDIREC
      +                          T,
    36                           ; INCIDENTAL, SPECIAL, EXEMPLARY, OR CONSEQUENTIAL DAMAGES (INCLUDING BUT NOT LIMITED TO
    37                           ; PROCUREMENT OF SUBSTITUTE GOODS OR SERVICES; LOSS OF USE, DATA OR PROFITS; OR BUSINESS
    38                           ; INTERRUPTION) HOWSOEVER CAUSED AND ON ANY THEORY OF LIABILITY, WHETHER IN CONTRACT, ST
      +                          RICT
    39                           ; LIABILITY, OR TORT (INCLUDING NEGLIGENCE OR OTHERWISE) ARISING IN ANY WAY OUT OF THE U
      +                          SE OF
    40                           ; THIS SOFTWARE, EVEN IF ADVISED OF THE POSSIBILITY OF SUCH DAMAGE.
    41                           ; 
    42                           ; 
    43                           ; Code-generator required, PIC16F1719 Definitions
    44                           ; 
    45                           ; SFR Addresses
    46     0000                     	;# 
    47     0001                     	;# 
    48     0002                     	;# 
    49     0003                     	;# 
    50     0004                     	;# 
    51     0005                     	;# 
    52     0006                     	;# 
    53     0007                     	;# 
    54     0008                     	;# 
    55     0009                     	;# 
    56     000A                     	;# 
    57     000B                     	;# 
    58     000C                     	;# 
    59     000D                     	;# 
    60     000E                     	;# 
    61     000F                     	;# 
    62     0010                     	;# 
    63     0011                     	;# 
    64     0012                     	;# 
    65     0013                     	;# 
    66     0015                     	;# 
    67     0016                     	;# 
    68     0016                     	;# 
    69     0017                     	;# 
    70     0018                     	;# 
    71     0019                     	;# 
    72     001A                     	;# 
    73     001B                     	;# 
    74     001C                     	;# 
    75     008C                     	;# 
    76     008D                     	;# 
    77     008E                     	;# 
    78     008F                     	;# 
    79     0090                     	;# 
    80     0091                     	;# 
    81     0092                     	;# 
    82     0093                     	;# 
    83     0095                     	;# 
    84     0096                     	;# 
    85     0097                     	;# 
    86     0098                     	;# 
    87     0099                     	;# 
    88     009A                     	;# 
    89     009B                     	;# 
    90     009B                     	;# 
    91     009C                     	;# 
    92     009D                     	;# 
    93     009E                     	;# 
    94     009F                     	;# 
    95     010C                     	;# 
    96     010D                     	;# 
    97     010E                     	;# 
    98     010F                     	;# 
    99     0110                     	;# 
   100     0111                     	;# 
   101     0112                     	;# 
   102     0113                     	;# 
   103     0114                     	;# 
   104     0115                     	;# 
   105     0116                     	;# 
   106     0117                     	;# 
   107     0118                     	;# 
   108     0119                     	;# 
   109     011A                     	;# 
   110     011B                     	;# 
   111     011B                     	;# 
   112     011C                     	;# 
   113     018C                     	;# 
   114     018D                     	;# 
   115     018E                     	;# 
   116     018F                     	;# 
   117     0190                     	;# 
   118     0191                     	;# 
   119     0191                     	;# 
   120     0192                     	;# 
   121     0193                     	;# 
   122     0193                     	;# 
   123     0194                     	;# 
   124     0195                     	;# 
   125     0196                     	;# 
   126     0197                     	;# 
   127     0199                     	;# 
   128     0199                     	;# 
   129     0199                     	;# 
   130     019A                     	;# 
   131     019A                     	;# 
   132     019A                     	;# 
   133     019B                     	;# 
   134     019B                     	;# 
   135     019B                     	;# 
   136     019B                     	;# 
   137     019B                     	;# 
   138     019C                     	;# 
   139     019C                     	;# 
   140     019C                     	;# 
   141     019D                     	;# 
   142     019D                     	;# 
   143     019D                     	;# 
   144     019E                     	;# 
   145     019E                     	;# 
   146     019E                     	;# 
   147     019F                     	;# 
   148     019F                     	;# 
   149     019F                     	;# 
   150     019F                     	;# 
   151     019F                     	;# 
   152     020C                     	;# 
   153     020D                     	;# 
   154     020E                     	;# 
   155     020F                     	;# 
   156     0210                     	;# 
   157     0211                     	;# 
   158     0211                     	;# 
   159     0212                     	;# 
   160     0212                     	;# 
   161     0213                     	;# 
   162     0213                     	;# 
   163     0214                     	;# 
   164     0214                     	;# 
   165     0215                     	;# 
   166     0215                     	;# 
   167     0215                     	;# 
   168     0215                     	;# 
   169     0216                     	;# 
   170     0216                     	;# 
   171     0217                     	;# 
   172     0217                     	;# 
   173     028C                     	;# 
   174     028D                     	;# 
   175     028E                     	;# 
   176     028F                     	;# 
   177     0290                     	;# 
   178     0291                     	;# 
   179     0291                     	;# 
   180     0292                     	;# 
   181     0293                     	;# 
   182     0293                     	;# 
   183     0298                     	;# 
   184     0298                     	;# 
   185     0299                     	;# 
   186     029A                     	;# 
   187     029A                     	;# 
   188     029E                     	;# 
   189     030C                     	;# 
   190     030D                     	;# 
   191     030E                     	;# 
   192     030F                     	;# 
   193     0310                     	;# 
   194     038C                     	;# 
   195     038D                     	;# 
   196     038E                     	;# 
   197     038F                     	;# 
   198     0390                     	;# 
   199     0391                     	;# 
   200     0392                     	;# 
   201     0393                     	;# 
   202     0394                     	;# 
   203     0395                     	;# 
   204     0396                     	;# 
   205     0397                     	;# 
   206     0398                     	;# 
   207     0399                     	;# 
   208     039D                     	;# 
   209     039E                     	;# 
   210     039F                     	;# 
   211     0415                     	;# 
   212     0416                     	;# 
   213     0417                     	;# 
   214     041C                     	;# 
   215     041D                     	;# 
   216     041E                     	;# 
   217     0498                     	;# 
   218     0498                     	;# 
   219     0499                     	;# 
   220     049A                     	;# 
   221     049B                     	;# 
   222     049B                     	;# 
   223     049C                     	;# 
   224     049D                     	;# 
   225     049E                     	;# 
   226     049F                     	;# 
   227     0511                     	;# 
   228     0515                     	;# 
   229     0617                     	;# 
   230     0618                     	;# 
   231     0619                     	;# 
   232     0619                     	;# 
   233     061A                     	;# 
   234     061B                     	;# 
   235     061C                     	;# 
   236     061C                     	;# 
   237     0691                     	;# 
   238     0692                     	;# 
   239     0693                     	;# 
   240     0694                     	;# 
   241     0695                     	;# 
   242     0696                     	;# 
   243     0697                     	;# 
   244     0698                     	;# 
   245     0699                     	;# 
   246     069A                     	;# 
   247     069B                     	;# 
   248     069C                     	;# 
   249     069D                     	;# 
   250     069E                     	;# 
   251     069F                     	;# 
   252     0E0F                     	;# 
   253     0E10                     	;# 
   254     0E11                     	;# 
   255     0E12                     	;# 
   256     0E13                     	;# 
   257     0E14                     	;# 
   258     0E15                     	;# 
   259     0E17                     	;# 
   260     0E20                     	;# 
   261     0E21                     	;# 
   262     0E22                     	;# 
   263     0E24                     	;# 
   264     0E25                     	;# 
   265     0E28                     	;# 
   266     0E29                     	;# 
   267     0E2A                     	;# 
   268     0E2B                     	;# 
   269     0E90                     	;# 
   270     0E91                     	;# 
   271     0E92                     	;# 
   272     0E93                     	;# 
   273     0E94                     	;# 
   274     0E95                     	;# 
   275     0E96                     	;# 
   276     0E97                     	;# 
   277     0E98                     	;# 
   278     0E99                     	;# 
   279     0E9A                     	;# 
   280     0E9B                     	;# 
   281     0E9C                     	;# 
   282     0E9D                     	;# 
   283     0E9E                     	;# 
   284     0E9F                     	;# 
   285     0EA0                     	;# 
   286     0EA1                     	;# 
   287     0EA2                     	;# 
   288     0EA3                     	;# 
   289     0EA4                     	;# 
   290     0EA5                     	;# 
   291     0EA6                     	;# 
   292     0EA7                     	;# 
   293     0EA8                     	;# 
   294     0EA9                     	;# 
   295     0EAA                     	;# 
   296     0EAB                     	;# 
   297     0EAC                     	;# 
   298     0EAD                     	;# 
   299     0EAE                     	;# 
   300     0EAF                     	;# 
   301     0EB0                     	;# 
   302     0EB1                     	;# 
   303     0EB2                     	;# 
   304     0F0F                     	;# 
   305     0F10                     	;# 
   306     0F11                     	;# 
   307     0F12                     	;# 
   308     0F13                     	;# 
   309     0F14                     	;# 
   310     0F15                     	;# 
   311     0F16                     	;# 
   312     0F17                     	;# 
   313     0F18                     	;# 
   314     0F19                     	;# 
   315     0F1A                     	;# 
   316     0F1B                     	;# 
   317     0F1C                     	;# 
   318     0F1D                     	;# 
   319     0F1E                     	;# 
   320     0F1F                     	;# 
   321     0F20                     	;# 
   322     0F21                     	;# 
   323     0F22                     	;# 
   324     0F23                     	;# 
   325     0F24                     	;# 
   326     0F25                     	;# 
   327     0F26                     	;# 
   328     0F27                     	;# 
   329     0F28                     	;# 
   330     0F29                     	;# 
   331     0F2A                     	;# 
   332     0F2B                     	;# 
   333     0F2C                     	;# 
   334     0F2D                     	;# 
   335     0F2E                     	;# 
   336     0F2F                     	;# 
   337     0F30                     	;# 
   338     0F31                     	;# 
   339     0F32                     	;# 
   340     0F33                     	;# 
   341     0F34                     	;# 
   342     0F35                     	;# 
   343     0F36                     	;# 
   344     0F37                     	;# 
   345     0FE4                     	;# 
   346     0FE5                     	;# 
   347     0FE6                     	;# 
   348     0FE7                     	;# 
   349     0FE8                     	;# 
   350     0FE9                     	;# 
   351     0FEA                     	;# 
   352     0FEB                     	;# 
   353     0FED                     	;# 
   354     0FEE                     	;# 
   355     0FEF                     	;# 
   356     001B                     _PR2	set	27
   357     001C                     _T2CONbits	set	28
   358     0011                     _PIR1bits	set	17
   359     008D                     _TRISBbits	set	141
   360     008F                     _TRISDbits	set	143
   361                           
   362                           	psect	cinit
   363     07FD                     start_initialization:	
   364                           ; #config settings
   365                           
   366     07FD                     __initialization:
   367     07FD                     end_of_initialization:	
   368                           ;End of C runtime variable initialization code
   369                           
   370     07FD                     __end_of__initialization:
   371     07FD  0020               	movlb	0
   372     07FE  3187  2FBC         	ljmp	_main	;jump to C main() function
   373                           
   374                           	psect	cstackCOMMON
   375     0070                     __pcstackCOMMON:
   376     0070                     ?_init_leds:
   377     0070                     ??_init_leds:	
   378                           ; 1 bytes @ 0x0
   379                           
   380     0070                     ?_delay_timer2:	
   381                           ; 1 bytes @ 0x0
   382                           
   383     0070                     ??_delay_timer2:	
   384                           ; 1 bytes @ 0x0
   385                           
   386     0070                     ?_main:	
   387                           ; 1 bytes @ 0x0
   388                           
   389                           
   390                           ; 1 bytes @ 0x0
   391     0070                     	ds	1
   392     0071                     delay_timer2@i:
   393                           
   394                           ; 2 bytes @ 0x1
   395     0071                     	ds	2
   396     0073                     ??_main:
   397                           
   398                           	psect	maintext
   399     07BC                     __pmaintext:	
   400                           ; 1 bytes @ 0x3
   401 ;;
   402 ;;Main: autosize = 0, tempsize = 0, incstack = 0, save=0
   403 ;;
   404 ;; *************** function _main *****************
   405 ;; Defined at:
   406 ;;		line 41 in file "main.c"
   407 ;; Parameters:    Size  Location     Type
   408 ;;		None
   409 ;; Auto vars:     Size  Location     Type
   410 ;;		None
   411 ;; Return value:  Size  Location     Type
   412 ;;                  1    wreg      void 
   413 ;; Registers used:
   414 ;;		wreg, status,2, status,0, pclath, cstack
   415 ;; Tracked objects:
   416 ;;		On entry : B1F/0
   417 ;;		On exit  : 0/0
   418 ;;		Unchanged: 0/0
   419 ;; Data sizes:     COMMON   BANK0   BANK1   BANK2   BANK3   BANK4   BANK5   BANK6   BANK7   BANK8   BANK9  BANK10  BANK1
      +1  BANK12  BANK13  BANK14  BANK15  BANK16  BANK17  BANK18  BANK19  BANK20  BANK21  BANK22  BANK23  BANK24  BANK25
   420 ;;      Params:         0       0       0       0       0       0       0       0       0       0       0       0       
      +0       0       0       0       0       0       0       0       0       0       0       0       0       0       0
   421 ;;      Locals:         0       0       0       0       0       0       0       0       0       0       0       0       
      +0       0       0       0       0       0       0       0       0       0       0       0       0       0       0
   422 ;;      Temps:          0       0       0       0       0       0       0       0       0       0       0       0       
      +0       0       0       0       0       0       0       0       0       0       0       0       0       0       0
   423 ;;      Totals:         0       0       0       0       0       0       0       0       0       0       0       0       
      +0       0       0       0       0       0       0       0       0       0       0       0       0       0       0
   424 ;;Total ram usage:        0 bytes
   425 ;; Hardware stack levels required when called: 1
   426 ;; This function calls:
   427 ;;		_delay_timer2
   428 ;;		_init_leds
   429 ;; This function is called by:
   430 ;;		Startup code after reset
   431 ;; This function uses a non-reentrant model
   432 ;;
   433                           
   434     07BC                     _main:	
   435                           ;psect for function _main
   436                           
   437     07BC                     l565:	
   438                           ;incstack = 0
   439                           ; Regs used in _main: [wreg+status,2+status,0+pclath+cstack]
   440                           
   441                           
   442                           ;main.c: 43:     init_leds();
   443     07BC  3187  2798  3187   	fcall	_init_leds
   444     07BF                     l567:
   445                           
   446                           ;main.c: 44:     T2CONbits.TMR2ON = 1;
   447     07BF  0020               	movlb	0	; select bank0
   448     07C0  151C               	bsf	28,2	;volatile
   449     07C1                     l569:
   450                           
   451                           ;main.c: 45:     T2CONbits.T2OUTPS = 0;
   452     07C1  3087               	movlw	-121
   453     07C2  059C               	andwf	28,f	;volatile
   454     07C3                     l571:
   455                           
   456                           ;main.c: 46:     T2CONbits.T2CKPS = 2;
   457     07C3  081C               	movf	28,w	;volatile
   458     07C4  39FC               	andlw	-4
   459     07C5  3802               	iorlw	2
   460     07C6  009C               	movwf	28	;volatile
   461     07C7                     l573:
   462                           
   463                           ;main.c: 47:     PR2 = 249;
   464     07C7  30F9               	movlw	249
   465     07C8  009B               	movwf	27	;volatile
   466     07C9                     l575:
   467                           
   468                           ;main.c: 50:         TRISDbits.TRISD0 = 1;
   469     07C9  0021               	movlb	1	; select bank1
   470     07CA  140F               	bsf	15,0	;volatile
   471                           
   472                           ;main.c: 51:         delay_timer2();
   473     07CB  3187  27A2  3187   	fcall	_delay_timer2
   474     07CE                     l577:
   475                           
   476                           ;main.c: 52:         TRISDbits.TRISD0 = 0;
   477     07CE  0021               	movlb	1	; select bank1
   478     07CF  100F               	bcf	15,0	;volatile
   479     07D0                     l579:
   480                           
   481                           ;main.c: 53:         TRISDbits.TRISD1 = 1;
   482     07D0  148F               	bsf	15,1	;volatile
   483                           
   484                           ;main.c: 54:         delay_timer2();
   485     07D1  3187  27A2  3187   	fcall	_delay_timer2
   486     07D4                     l581:
   487                           
   488                           ;main.c: 55:         TRISDbits.TRISD1 = 0;
   489     07D4  0021               	movlb	1	; select bank1
   490     07D5  108F               	bcf	15,1	;volatile
   491     07D6                     l583:
   492                           
   493                           ;main.c: 56:         TRISDbits.TRISD2 = 1;
   494     07D6  150F               	bsf	15,2	;volatile
   495                           
   496                           ;main.c: 57:         delay_timer2();
   497     07D7  3187  27A2  3187   	fcall	_delay_timer2
   498     07DA                     l585:
   499                           
   500                           ;main.c: 58:         TRISDbits.TRISD2 = 0;
   501     07DA  0021               	movlb	1	; select bank1
   502     07DB  110F               	bcf	15,2	;volatile
   503     07DC                     l587:
   504                           
   505                           ;main.c: 59:         TRISDbits.TRISD3 = 1;
   506     07DC  158F               	bsf	15,3	;volatile
   507                           
   508                           ;main.c: 60:         delay_timer2();
   509     07DD  3187  27A2  3187   	fcall	_delay_timer2
   510     07E0                     l589:
   511                           
   512                           ;main.c: 61:         TRISDbits.TRISD3 = 0;
   513     07E0  0021               	movlb	1	; select bank1
   514     07E1  118F               	bcf	15,3	;volatile
   515     07E2                     l591:
   516                           
   517                           ;main.c: 62:         TRISBbits.TRISB0 = 1;
   518     07E2  140D               	bsf	13,0	;volatile
   519                           
   520                           ;main.c: 63:         delay_timer2();
   521     07E3  3187  27A2  3187   	fcall	_delay_timer2
   522     07E6                     l593:
   523                           
   524                           ;main.c: 64:         TRISBbits.TRISB0 = 0;
   525     07E6  0021               	movlb	1	; select bank1
   526     07E7  100D               	bcf	13,0	;volatile
   527     07E8                     l595:
   528                           
   529                           ;main.c: 65:         TRISBbits.TRISB1 = 1;
   530     07E8  148D               	bsf	13,1	;volatile
   531                           
   532                           ;main.c: 66:         delay_timer2();
   533     07E9  3187  27A2  3187   	fcall	_delay_timer2
   534     07EC                     l597:
   535                           
   536                           ;main.c: 67:         TRISBbits.TRISB1 = 0;
   537     07EC  0021               	movlb	1	; select bank1
   538     07ED  108D               	bcf	13,1	;volatile
   539     07EE                     l599:
   540                           
   541                           ;main.c: 68:         TRISBbits.TRISB2 = 1;
   542     07EE  150D               	bsf	13,2	;volatile
   543                           
   544                           ;main.c: 69:         delay_timer2();
   545     07EF  3187  27A2  3187   	fcall	_delay_timer2
   546     07F2                     l601:
   547                           
   548                           ;main.c: 70:         TRISBbits.TRISB2 = 0;
   549     07F2  0021               	movlb	1	; select bank1
   550     07F3  110D               	bcf	13,2	;volatile
   551     07F4                     l603:
   552                           
   553                           ;main.c: 71:         TRISBbits.TRISB3 = 1;
   554     07F4  158D               	bsf	13,3	;volatile
   555                           
   556                           ;main.c: 72:         delay_timer2();
   557     07F5  3187  27A2  3187   	fcall	_delay_timer2
   558     07F8                     l605:
   559                           
   560                           ;main.c: 73:         TRISBbits.TRISB3 = 0;
   561     07F8  0021               	movlb	1	; select bank1
   562     07F9  118D               	bcf	13,3	;volatile
   563     07FA  2FC9               	goto	l575
   564     07FB  3180  2802         	ljmp	start
   565     07FD                     __end_of_main:
   566                           
   567                           	psect	text1
   568     0798                     __ptext1:	
   569 ;; *************** function _init_leds *****************
   570 ;; Defined at:
   571 ;;		line 21 in file "main.c"
   572 ;; Parameters:    Size  Location     Type
   573 ;;		None
   574 ;; Auto vars:     Size  Location     Type
   575 ;;		None
   576 ;; Return value:  Size  Location     Type
   577 ;;                  1    wreg      void 
   578 ;; Registers used:
   579 ;;		None
   580 ;; Tracked objects:
   581 ;;		On entry : 0/0
   582 ;;		On exit  : 0/0
   583 ;;		Unchanged: 0/0
   584 ;; Data sizes:     COMMON   BANK0   BANK1   BANK2   BANK3   BANK4   BANK5   BANK6   BANK7   BANK8   BANK9  BANK10  BANK1
      +1  BANK12  BANK13  BANK14  BANK15  BANK16  BANK17  BANK18  BANK19  BANK20  BANK21  BANK22  BANK23  BANK24  BANK25
   585 ;;      Params:         0       0       0       0       0       0       0       0       0       0       0       0       
      +0       0       0       0       0       0       0       0       0       0       0       0       0       0       0
   586 ;;      Locals:         0       0       0       0       0       0       0       0       0       0       0       0       
      +0       0       0       0       0       0       0       0       0       0       0       0       0       0       0
   587 ;;      Temps:          0       0       0       0       0       0       0       0       0       0       0       0       
      +0       0       0       0       0       0       0       0       0       0       0       0       0       0       0
   588 ;;      Totals:         0       0       0       0       0       0       0       0       0       0       0       0       
      +0       0       0       0       0       0       0       0       0       0       0       0       0       0       0
   589 ;;Total ram usage:        0 bytes
   590 ;; Hardware stack levels used: 1
   591 ;; This function calls:
   592 ;;		Nothing
   593 ;; This function is called by:
   594 ;;		_main
   595 ;; This function uses a non-reentrant model
   596 ;;
   597                           
   598     0798                     _init_leds:	
   599                           ;psect for function _init_leds
   600                           
   601     0798                     l555:	
   602                           ;incstack = 0
   603                           ; Regs used in _init_leds: []
   604                           
   605                           
   606                           ;main.c: 22:     TRISDbits.TRISD0 = 0;
   607     0798  0021               	movlb	1	; select bank1
   608     0799  100F               	bcf	15,0	;volatile
   609                           
   610                           ;main.c: 23:     TRISDbits.TRISD1 = 0;
   611     079A  108F               	bcf	15,1	;volatile
   612                           
   613                           ;main.c: 24:     TRISDbits.TRISD2 = 0;
   614     079B  110F               	bcf	15,2	;volatile
   615                           
   616                           ;main.c: 25:     TRISDbits.TRISD3 = 0;
   617     079C  118F               	bcf	15,3	;volatile
   618                           
   619                           ;main.c: 26:     TRISBbits.TRISB0 = 0;
   620     079D  100D               	bcf	13,0	;volatile
   621                           
   622                           ;main.c: 27:     TRISBbits.TRISB1 = 0;
   623     079E  108D               	bcf	13,1	;volatile
   624                           
   625                           ;main.c: 28:     TRISBbits.TRISB2 = 0;
   626     079F  110D               	bcf	13,2	;volatile
   627                           
   628                           ;main.c: 29:     TRISBbits.TRISB3 = 0;
   629     07A0  118D               	bcf	13,3	;volatile
   630     07A1                     l13:
   631     07A1  0008               	return
   632     07A2                     __end_of_init_leds:
   633                           
   634                           	psect	text2
   635     07A2                     __ptext2:	
   636 ;; *************** function _delay_timer2 *****************
   637 ;; Defined at:
   638 ;;		line 32 in file "main.c"
   639 ;; Parameters:    Size  Location     Type
   640 ;;		None
   641 ;; Auto vars:     Size  Location     Type
   642 ;;  i               2    1[COMMON] int 
   643 ;; Return value:  Size  Location     Type
   644 ;;                  1    wreg      void 
   645 ;; Registers used:
   646 ;;		wreg, status,2
   647 ;; Tracked objects:
   648 ;;		On entry : 0/0
   649 ;;		On exit  : 0/0
   650 ;;		Unchanged: 0/0
   651 ;; Data sizes:     COMMON   BANK0   BANK1   BANK2   BANK3   BANK4   BANK5   BANK6   BANK7   BANK8   BANK9  BANK10  BANK1
      +1  BANK12  BANK13  BANK14  BANK15  BANK16  BANK17  BANK18  BANK19  BANK20  BANK21  BANK22  BANK23  BANK24  BANK25
   652 ;;      Params:         0       0       0       0       0       0       0       0       0       0       0       0       
      +0       0       0       0       0       0       0       0       0       0       0       0       0       0       0
   653 ;;      Locals:         2       0       0       0       0       0       0       0       0       0       0       0       
      +0       0       0       0       0       0       0       0       0       0       0       0       0       0       0
   654 ;;      Temps:          1       0       0       0       0       0       0       0       0       0       0       0       
      +0       0       0       0       0       0       0       0       0       0       0       0       0       0       0
   655 ;;      Totals:         3       0       0       0       0       0       0       0       0       0       0       0       
      +0       0       0       0       0       0       0       0       0       0       0       0       0       0       0
   656 ;;Total ram usage:        3 bytes
   657 ;; Hardware stack levels used: 1
   658 ;; This function calls:
   659 ;;		Nothing
   660 ;; This function is called by:
   661 ;;		_main
   662 ;; This function uses a non-reentrant model
   663 ;;
   664                           
   665     07A2                     _delay_timer2:	
   666                           ;psect for function _delay_timer2
   667                           
   668     07A2                     l557:	
   669                           ;incstack = 0
   670                           ; Regs used in _delay_timer2: [wreg+status,2]
   671                           
   672                           
   673                           ;main.c: 33:     for (int i = 0; i <= 500; i++) {
   674     07A2  01F1               	clrf	delay_timer2@i
   675     07A3  01F2               	clrf	delay_timer2@i+1
   676     07A4                     l18:	
   677                           ;main.c: 35:         }
   678                           
   679                           
   680                           ;main.c: 34:         while(PIR1bits.TMR2IF == 0) {
   681     07A4  0020               	movlb	0	; select bank0
   682     07A5  1C91               	btfss	17,1	;volatile
   683     07A6  2FA8               	goto	u11
   684     07A7  2FA9               	goto	u10
   685     07A8                     u11:
   686     07A8  2FA4               	goto	l18
   687     07A9                     u10:
   688     07A9                     l20:
   689                           
   690                           ;main.c: 36:         PIR1bits.TMR2IF = 0;
   691     07A9  1091               	bcf	17,1	;volatile
   692     07AA                     l563:
   693                           
   694                           ;main.c: 37:     }
   695     07AA  3001               	movlw	1
   696     07AB  07F1               	addwf	delay_timer2@i,f
   697     07AC  3000               	movlw	0
   698     07AD  3DF2               	addwfc	delay_timer2@i+1,f
   699     07AE  0872               	movf	delay_timer2@i+1,w
   700     07AF  3A80               	xorlw	128
   701     07B0  00F0               	movwf	??_delay_timer2
   702     07B1  3081               	movlw	129
   703     07B2  0270               	subwf	??_delay_timer2,w
   704     07B3  1D03               	skipz
   705     07B4  2FB7               	goto	u25
   706     07B5  30F5               	movlw	245
   707     07B6  0271               	subwf	delay_timer2@i,w
   708     07B7                     u25:
   709     07B7  1C03               	skipc
   710     07B8  2FBA               	goto	u21
   711     07B9  2FBB               	goto	u20
   712     07BA                     u21:
   713     07BA  2FA4               	goto	l18
   714     07BB                     u20:
   715     07BB                     l21:
   716     07BB  0008               	return
   717     07BC                     __end_of_delay_timer2:
   718     007E                     btemp	set	126	;btemp
   719     007E                     wtemp0	set	126
   720                           
   721                           	psect	config
   722                           
   723                           ;Config register CONFIG1 @ 0x8007
   724                           ;	Oscillator Selection Bits
   725                           ;	FOSC = HS, HS Oscillator, High-speed crystal/resonator connected between OSC1 and OSC2
      +                           pins
   726                           ;	Watchdog Timer Enable
   727                           ;	WDTE = SWDTEN, WDT controlled by the SWDTEN bit in the WDTCON register
   728                           ;	Power-up Timer Enable
   729                           ;	PWRTE = OFF, PWRT disabled
   730                           ;	MCLR Pin Function Select
   731                           ;	MCLRE = ON, MCLR/VPP pin function is MCLR
   732                           ;	Flash Program Memory Code Protection
   733                           ;	CP = OFF, Program memory code protection is disabled
   734                           ;	Brown-out Reset Enable
   735                           ;	BOREN = ON, Brown-out Reset enabled
   736                           ;	Clock Out Enable
   737                           ;	CLKOUTEN = OFF, CLKOUT function is disabled. I/O or oscillator function on the CLKOUT 
      +                          pin
   738                           ;	Internal/External Switchover Mode
   739                           ;	IESO = ON, Internal/External Switchover Mode is enabled
   740                           ;	Fail-Safe Clock Monitor Enable
   741                           ;	FCMEN = ON, Fail-Safe Clock Monitor is enabled
   742     8007                     	org	32775
   743     8007  3FEA               	dw	16362
   744                           
   745                           ;Config register CONFIG2 @ 0x8008
   746                           ;	Flash Memory Self-Write Protection
   747                           ;	WRT = OFF, Write protection off
   748                           ;	Peripheral Pin Select one-way control
   749                           ;	PPS1WAY = OFF, The PPSLOCK bit can be set and cleared repeatedly by software
   750                           ;	Zero-cross detect disable
   751                           ;	ZCDDIS = ON, ZCD disabled. ZCD can be enabled by setting the ZCDSEN bit of ZCDCON
   752                           ;	Phase Lock Loop enable
   753                           ;	PLLEN = OFF, 4x PLL is disabled
   754                           ;	Stack Overflow/Underflow Reset Enable
   755                           ;	STVREN = ON, Stack Overflow or Underflow will cause a Reset
   756                           ;	Brown-out Reset Voltage Selection
   757                           ;	BORV = LO, Brown-out Reset Voltage (Vbor), low trip point selected.
   758                           ;	Low-Power Brown Out Reset
   759                           ;	LPBOR = OFF, Low-Power BOR is disabled
   760                           ;	In-Circuit Debugger Mode
   761                           ;	DEBUG = 0x1, unprogrammed default
   762                           ;	Low-Voltage Programming Enable
   763                           ;	LVP = OFF, High-voltage on MCLR/VPP must be used for programming
   764     8008                     	org	32776
   765     8008  1EFB               	dw	7931

Data Sizes:
    Strings     0
    Constant    0
    Data        0
    BSS         0
    Persistent  32
    Stack       0

Auto Spaces:
    Space          Size  Autos    Used
    COMMON           14      3       3
    BANK0            80      0       0
    BANK1            80      0       0
    BANK2            80      0       0
    BANK3            80      0       0
    BANK4            80      0       0
    BANK5            80      0       0
    BANK6            80      0       0
    BANK7            80      0       0
    BANK8            80      0       0
    BANK9            80      0       0
    BANK10           80      0       0
    BANK11           80      0       0
    BANK12           80      0       0
    BANK13           80      0       0
    BANK14           80      0       0
    BANK15           80      0       0
    BANK16           80      0       0
    BANK17           80      0       0
    BANK18           80      0       0
    BANK19           80      0       0
    BANK20           80      0       0
    BANK21           80      0       0
    BANK22           80      0       0
    BANK23           80      0       0
    BANK24           80      0       0
    BANK25           32      0       0

Pointer List with Targets:

    None.

Critical Paths under _main in COMMON

    _main->_delay_timer2

Critical Paths under _main in BANK0

    None.

Critical Paths under _main in BANK1

    None.

Critical Paths under _main in BANK2

    None.

Critical Paths under _main in BANK3

    None.

Critical Paths under _main in BANK4

    None.

Critical Paths under _main in BANK5

    None.

Critical Paths under _main in BANK6

    None.

Critical Paths under _main in BANK7

    None.

Critical Paths under _main in BANK8

    None.

Critical Paths under _main in BANK9

    None.

Critical Paths under _main in BANK10

    None.

Critical Paths under _main in BANK11

    None.

Critical Paths under _main in BANK12

    None.

Critical Paths under _main in BANK13

    None.

Critical Paths under _main in BANK14

    None.

Critical Paths under _main in BANK15

    None.

Critical Paths under _main in BANK16

    None.

Critical Paths under _main in BANK17

    None.

Critical Paths under _main in BANK18

    None.

Critical Paths under _main in BANK19

    None.

Critical Paths under _main in BANK20

    None.

Critical Paths under _main in BANK21

    None.

Critical Paths under _main in BANK22

    None.

Critical Paths under _main in BANK23

    None.

Critical Paths under _main in BANK24

    None.

Critical Paths under _main in BANK25

    None.

Call Graph Tables:

 ---------------------------------------------------------------------------------
 (Depth) Function   	        Calls       Base Space   Used Autos Params    Refs
 ---------------------------------------------------------------------------------
 (0) _main                                                 0     0      0      30
                       _delay_timer2
                          _init_leds
 ---------------------------------------------------------------------------------
 (1) _init_leds                                            0     0      0       0
 ---------------------------------------------------------------------------------
 (1) _delay_timer2                                         3     3      0      30
                                              0 COMMON     3     3      0
 ---------------------------------------------------------------------------------
 Estimated maximum stack depth 1
 ---------------------------------------------------------------------------------

 Call Graph Graphs:

 _main (ROOT)
   _delay_timer2
   _init_leds

 Address spaces:
Name               Size   Autos  Total    Cost      Usage
BIGRAM             7F0      0       0       0        0.0%
NULL                 0      0       0       0        0.0%
CODE                 0      0       0       0        0.0%
BITCOMMON            E      0       0       1        0.0%
BITSFR0              0      0       0       1        0.0%
SFR0                 0      0       0       1        0.0%
COMMON               E      3       3       2       21.4%
BITSFR1              0      0       0       2        0.0%
SFR1                 0      0       0       2        0.0%
BITSFR2              0      0       0       3        0.0%
SFR2                 0      0       0       3        0.0%
STACK                0      0       0       3        0.0%
BITBANK0            50      0       0       4        0.0%
BITSFR3              0      0       0       4        0.0%
SFR3                 0      0       0       4        0.0%
BANK0               50      0       0       5        0.0%
BITSFR4              0      0       0       5        0.0%
SFR4                 0      0       0       5        0.0%
BITBANK1            50      0       0       6        0.0%
BITSFR5              0      0       0       6        0.0%
SFR5                 0      0       0       6        0.0%
BANK1               50      0       0       7        0.0%
BITSFR6              0      0       0       7        0.0%
SFR6                 0      0       0       7        0.0%
BITBANK2            50      0       0       8        0.0%
BITSFR7              0      0       0       8        0.0%
SFR7                 0      0       0       8        0.0%
BANK2               50      0       0       9        0.0%
BITSFR8              0      0       0       9        0.0%
SFR8                 0      0       0       9        0.0%
BITBANK3            50      0       0      10        0.0%
BITSFR9              0      0       0      10        0.0%
SFR9                 0      0       0      10        0.0%
BANK3               50      0       0      11        0.0%
BITSFR10             0      0       0      11        0.0%
SFR10                0      0       0      11        0.0%
BITBANK4            50      0       0      12        0.0%
BITSFR11             0      0       0      12        0.0%
SFR11                0      0       0      12        0.0%
BANK4               50      0       0      13        0.0%
BITSFR12             0      0       0      13        0.0%
SFR12                0      0       0      13        0.0%
BITSFR13             0      0       0      14        0.0%
SFR13                0      0       0      14        0.0%
ABS                  0      0       0      14        0.0%
BITBANK5            50      0       0      15        0.0%
BITSFR14             0      0       0      15        0.0%
SFR14                0      0       0      15        0.0%
BANK5               50      0       0      16        0.0%
BITSFR15             0      0       0      16        0.0%
SFR15                0      0       0      16        0.0%
BITBANK6            50      0       0      17        0.0%
BITSFR16             0      0       0      17        0.0%
SFR16                0      0       0      17        0.0%
BANK6               50      0       0      18        0.0%
BITSFR17             0      0       0      18        0.0%
SFR17                0      0       0      18        0.0%
BITBANK7            50      0       0      19        0.0%
BITSFR18             0      0       0      19        0.0%
SFR18                0      0       0      19        0.0%
BANK7               50      0       0      20        0.0%
BITSFR19             0      0       0      20        0.0%
SFR19                0      0       0      20        0.0%
BITBANK8            50      0       0      21        0.0%
BITSFR20             0      0       0      21        0.0%
SFR20                0      0       0      21        0.0%
BANK8               50      0       0      22        0.0%
BITSFR21             0      0       0      22        0.0%
SFR21                0      0       0      22        0.0%
BITBANK9            50      0       0      23        0.0%
BITSFR22             0      0       0      23        0.0%
SFR22                0      0       0      23        0.0%
BANK9               50      0       0      24        0.0%
BITSFR23             0      0       0      24        0.0%
SFR23                0      0       0      24        0.0%
BITBANK10           50      0       0      25        0.0%
BITSFR24             0      0       0      25        0.0%
SFR24                0      0       0      25        0.0%
BANK10              50      0       0      26        0.0%
BITSFR25             0      0       0      26        0.0%
SFR25                0      0       0      26        0.0%
BITBANK11           50      0       0      27        0.0%
BITSFR26             0      0       0      27        0.0%
SFR26                0      0       0      27        0.0%
BITSFR27             0      0       0      28        0.0%
SFR27                0      0       0      28        0.0%
DATA                 0      0       0      28        0.0%
BANK11              50      0       0      29        0.0%
BITSFR28             0      0       0      29        0.0%
SFR28                0      0       0      29        0.0%
BITBANK12           50      0       0      30        0.0%
BITSFR29             0      0       0      30        0.0%
SFR29                0      0       0      30        0.0%
BANK12              50      0       0      31        0.0%
BITSFR30             0      0       0      31        0.0%
SFR30                0      0       0      31        0.0%
BITBANK13           50      0       0      32        0.0%
BITSFR31             0      0       0      32        0.0%
SFR31                0      0       0      32        0.0%
BANK13              50      0       0      33        0.0%
BITBANK14           50      0       0      34        0.0%
BANK14              50      0       0      35        0.0%
BITBANK15           50      0       0      36        0.0%
BANK15              50      0       0      37        0.0%
BITBANK16           50      0       0      38        0.0%
BANK16              50      0       0      39        0.0%
BITBANK17           50      0       0      40        0.0%
BANK17              50      0       0      41        0.0%
BITBANK18           50      0       0      42        0.0%
BANK18              50      0       0      43        0.0%
BITBANK19           50      0       0      44        0.0%
BANK19              50      0       0      45        0.0%
BITBANK20           50      0       0      46        0.0%
BANK20              50      0       0      47        0.0%
BITBANK21           50      0       0      48        0.0%
BANK21              50      0       0      49        0.0%
BITBANK22           50      0       0      50        0.0%
BANK22              50      0       0      51        0.0%
BITBANK23           50      0       0      52        0.0%
BANK23              50      0       0      53        0.0%
BITBANK24           50      0       0      54        0.0%
BANK24              50      0       0      55        0.0%
BITBANK25           20      0       0      56        0.0%
BANK25              20      0       0      57        0.0%


Microchip Technology PIC Macro Assembler V2.45 build 20230818022343 
Symbol Table                                                                                   Mon Jan 22 10:16:08 2024

                     l20 07A9                       l21 07BB                       l13 07A1  
                     l18 07A4                       u10 07A9                       u11 07A8  
                     u20 07BB                       u21 07BA                       u25 07B7  
                    l601 07F2                      l603 07F4                      l605 07F8  
                    l563 07AA                      l555 0798                      l571 07C3  
                    l557 07A2                      l581 07D4                      l573 07C7  
                    l565 07BC                      l591 07E2                      l583 07D6  
                    l575 07C9                      l567 07BF                      l593 07E6  
                    l585 07DA                      l577 07CE                      l569 07C1  
                    l595 07E8                      l587 07DC                      l579 07D0  
                    l597 07EC                      l589 07E0                      l599 07EE  
                    _PR2 001B                     _main 07BC                     btemp 007E  
                   start 0002                    ?_main 0070     __end_of_delay_timer2 07BC  
                  wtemp0 007E          __initialization 07FD             __end_of_main 07FD  
                 ??_main 0073  __end_of__initialization 07FD           __pcstackCOMMON 0070  
           _delay_timer2 07A2               __pmaintext 07BC                  __ptext1 0798  
                __ptext2 07A2                _T2CONbits 001C        __end_of_init_leds 07A2  
   end_of_initialization 07FD                _TRISBbits 008D                _TRISDbits 008F  
    start_initialization 07FD            delay_timer2@i 0071                ___latbits 0003  
              _init_leds 0798                 _PIR1bits 0011               ?_init_leds 0070  
          ?_delay_timer2 0070              ??_init_leds 0070           ??_delay_timer2 0070  
